
main.x86_64.nexe:     file format elf64-x86-64-nacl


Disassembly of section .init:

0000000000020000 <_init>:
   20000:	55                   	push   %rbp
   20001:	48 89 e5             	mov    %rsp,%rbp
   20004:	66 66 66 66 2e 0f 1f 	data32 data32 data32 nopw %cs:0x0(%rax,%rax,1)
   2000b:	84 00 00 00 00 00 
   20011:	66 66 66 66 66 66 2e 	data32 data32 data32 data32 data32 nopw %cs:0x0(%rax,%rax,1)
   20018:	0f 1f 84 00 00 00 00 
   2001f:	00 
   20020:	66 66 66 2e 0f 1f 84 	data32 data32 nopw %cs:0x0(%rax,%rax,1)
   20027:	00 00 00 00 00 
   2002c:	66 66 66 66 66 66 2e 	data32 data32 data32 data32 data32 nopw %cs:0x0(%rax,%rax,1)
   20033:	0f 1f 84 00 00 00 00 
   2003a:	00 
   2003b:	e8 20 01 00 00       	callq  20160 <frame_dummy>
   20040:	66 66 66 2e 0f 1f 84 	data32 data32 nopw %cs:0x0(%rax,%rax,1)
   20047:	00 00 00 00 00 
   2004c:	66 66 66 66 66 66 2e 	data32 data32 data32 data32 data32 nopw %cs:0x0(%rax,%rax,1)
   20053:	0f 1f 84 00 00 00 00 
   2005a:	00 
   2005b:	e8 e0 de 01 00       	callq  3df40 <__do_global_ctors_aux>
   20060:	48 89 ec             	mov    %rbp,%rsp
   20063:	41 5b                	pop    %r11
   20065:	44 89 dd             	mov    %r11d,%ebp
   20068:	4c 01 fd             	add    %r15,%rbp
   2006b:	41 5b                	pop    %r11
   2006d:	41 83 e3 e0          	and    $0xffffffe0,%r11d
   20071:	4d 01 fb             	add    %r15,%r11
   20074:	41 ff e3             	jmpq   *%r11
   20077:	f4                   	hlt    
   20078:	f4                   	hlt    
   20079:	f4                   	hlt    
   2007a:	f4                   	hlt    
   2007b:	f4                   	hlt    
   2007c:	f4                   	hlt    
   2007d:	f4                   	hlt    
   2007e:	f4                   	hlt    
   2007f:	f4                   	hlt    

Disassembly of section .text:

0000000000020080 <__do_global_dtors_aux>:
   20080:	55                   	push   %rbp
   20081:	48 89 e5             	mov    %rsp,%rbp
   20084:	53                   	push   %rbx
   20085:	83 ec 08             	sub    $0x8,%esp
   20088:	4c 01 fc             	add    %r15,%rsp
   2008b:	80 3d 0e 36 01 10 00 	cmpb   $0x0,0x1001360e(%rip)        # 100336a0 <completed.3120>
   20092:	0f 85 a8 00 00 00    	jne    20140 <__do_global_dtors_aux+0xc0>
   20098:	bb 5c 2f 03 10       	mov    $0x10032f5c,%ebx
   2009d:	0f 1f 00             	nopl   (%rax)
   200a0:	8b 05 fe 35 01 10    	mov    0x100135fe(%rip),%eax        # 100336a4 <dtor_idx.3122>
   200a6:	81 eb 58 2f 03 10    	sub    $0x10032f58,%ebx
   200ac:	c1 fb 02             	sar    $0x2,%ebx
   200af:	83 eb 01             	sub    $0x1,%ebx
   200b2:	39 d8                	cmp    %ebx,%eax
   200b4:	73 4a                	jae    20100 <__do_global_dtors_aux+0x80>
   200b6:	66 2e 0f 1f 84 00 00 	nopw   %cs:0x0(%rax,%rax,1)
   200bd:	00 00 00 
   200c0:	83 c0 01             	add    $0x1,%eax
   200c3:	89 05 db 35 01 10    	mov    %eax,0x100135db(%rip)        # 100336a4 <dtor_idx.3122>
   200c9:	c1 e0 02             	shl    $0x2,%eax
   200cc:	48 98                	cltq   
   200ce:	89 c0                	mov    %eax,%eax
   200d0:	41 8b 84 07 58 2f 03 	mov    0x10032f58(%r15,%rax,1),%eax
   200d7:	10 
   200d8:	83 e0 e0             	and    $0xffffffe0,%eax
   200db:	4c 01 f8             	add    %r15,%rax
   200de:	ff d0                	callq  *%rax
   200e0:	8b 05 be 35 01 10    	mov    0x100135be(%rip),%eax        # 100336a4 <dtor_idx.3122>
   200e6:	39 d8                	cmp    %ebx,%eax
   200e8:	72 d6                	jb     200c0 <__do_global_dtors_aux+0x40>
   200ea:	0f 1f 80 00 00 00 00 	nopl   0x0(%rax)
   200f1:	66 66 66 66 66 66 2e 	data32 data32 data32 data32 data32 nopw %cs:0x0(%rax,%rax,1)
   200f8:	0f 1f 84 00 00 00 00 
   200ff:	00 
   20100:	b8 00 00 00 00       	mov    $0x0,%eax
   20105:	85 c0                	test   %eax,%eax
   20107:	74 17                	je     20120 <__do_global_dtors_aux+0xa0>
   20109:	bf 48 13 02 10       	mov    $0x10021348,%edi
   2010e:	66 66 66 66 2e 0f 1f 	data32 data32 data32 nopw %cs:0x0(%rax,%rax,1)
   20115:	84 00 00 00 00 00 
   2011b:	e8 e0 fe fd ff       	callq  0 <_impure_ptr>
   20120:	c6 05 79 35 01 10 01 	movb   $0x1,0x10013579(%rip)        # 100336a0 <completed.3120>
   20127:	66 2e 0f 1f 84 00 00 	nopw   %cs:0x0(%rax,%rax,1)
   2012e:	00 00 00 
   20131:	66 66 66 66 66 66 2e 	data32 data32 data32 data32 data32 nopw %cs:0x0(%rax,%rax,1)
   20138:	0f 1f 84 00 00 00 00 
   2013f:	00 
   20140:	83 c4 08             	add    $0x8,%esp
   20143:	4c 01 fc             	add    %r15,%rsp
   20146:	5b                   	pop    %rbx
   20147:	41 5b                	pop    %r11
   20149:	44 89 dd             	mov    %r11d,%ebp
   2014c:	4c 01 fd             	add    %r15,%rbp
   2014f:	41 5b                	pop    %r11
   20151:	41 83 e3 e0          	and    $0xffffffe0,%r11d
   20155:	4d 01 fb             	add    %r15,%r11
   20158:	41 ff e3             	jmpq   *%r11
   2015b:	0f 1f 44 00 00       	nopl   0x0(%rax,%rax,1)

0000000000020160 <frame_dummy>:
   20160:	55                   	push   %rbp
   20161:	b8 00 00 00 00       	mov    $0x0,%eax
   20166:	85 c0                	test   %eax,%eax
   20168:	48 89 e5             	mov    %rsp,%rbp
   2016b:	74 13                	je     20180 <frame_dummy+0x20>
   2016d:	be b0 36 03 10       	mov    $0x100336b0,%esi
   20172:	bf 48 13 02 10       	mov    $0x10021348,%edi
   20177:	0f 1f 40 00          	nopl   0x0(%rax)
   2017b:	e8 80 fe fd ff       	callq  0 <_impure_ptr>
   20180:	8b 05 da 2d 01 10    	mov    0x10012dda(%rip),%eax        # 10032f60 <__JCR_END__>
   20186:	85 c0                	test   %eax,%eax
   20188:	74 36                	je     201c0 <frame_dummy+0x60>
   2018a:	b8 00 00 00 00       	mov    $0x0,%eax
   2018f:	89 c0                	mov    %eax,%eax
   20191:	48 85 c0             	test   %rax,%rax
   20194:	74 2a                	je     201c0 <frame_dummy+0x60>
   20196:	41 5b                	pop    %r11
   20198:	44 89 dd             	mov    %r11d,%ebp
   2019b:	4c 01 fd             	add    %r15,%rbp
   2019e:	66 90                	xchg   %ax,%ax
   201a0:	bf 60 2f 03 10       	mov    $0x10032f60,%edi
   201a5:	83 e0 e0             	and    $0xffffffe0,%eax
   201a8:	4c 01 f8             	add    %r15,%rax
   201ab:	ff e0                	jmpq   *%rax
   201ad:	0f 1f 40 00          	nopl   0x0(%rax)
   201b1:	66 66 66 66 66 66 2e 	data32 data32 data32 data32 data32 nopw %cs:0x0(%rax,%rax,1)
   201b8:	0f 1f 84 00 00 00 00 
   201bf:	00 
   201c0:	41 5b                	pop    %r11
   201c2:	44 89 dd             	mov    %r11d,%ebp
   201c5:	4c 01 fd             	add    %r15,%rbp
   201c8:	41 5b                	pop    %r11
   201ca:	41 83 e3 e0          	and    $0xffffffe0,%r11d
   201ce:	4d 01 fb             	add    %r15,%r11
   201d1:	41 ff e3             	jmpq   *%r11
   201d4:	90                   	nop
   201d5:	90                   	nop
   201d6:	90                   	nop
   201d7:	90                   	nop
   201d8:	90                   	nop
   201d9:	90                   	nop
   201da:	90                   	nop
   201db:	90                   	nop
   201dc:	90                   	nop
   201dd:	90                   	nop
   201de:	90                   	nop
   201df:	90                   	nop

00000000000201e0 <sum>:
   201e0:	55                   	push   %rbp
   201e1:	48 89 e5             	mov    %rsp,%rbp
   201e4:	89 7d fc             	mov    %edi,-0x4(%rbp)
   201e7:	89 75 f8             	mov    %esi,-0x8(%rbp)
   201ea:	8b 45 f8             	mov    -0x8(%rbp),%eax
   201ed:	8b 55 fc             	mov    -0x4(%rbp),%edx
   201f0:	8d 04 02             	lea    (%rdx,%rax,1),%eax
   201f3:	41 5b                	pop    %r11
   201f5:	44 89 dd             	mov    %r11d,%ebp
   201f8:	4c 01 fd             	add    %r15,%rbp
   201fb:	41 5b                	pop    %r11
   201fd:	0f 1f 00             	nopl   (%rax)
   20200:	41 83 e3 e0          	and    $0xffffffe0,%r11d
   20204:	4d 01 fb             	add    %r15,%r11
   20207:	41 ff e3             	jmpq   *%r11
   2020a:	0f 1f 80 00 00 00 00 	nopl   0x0(%rax)
   20211:	66 66 66 66 66 66 2e 	data32 data32 data32 data32 data32 nopw %cs:0x0(%rax,%rax,1)
   20218:	0f 1f 84 00 00 00 00 
   2021f:	00 

0000000000020220 <main>:
   20220:	55                   	push   %rbp
   20221:	48 89 e5             	mov    %rsp,%rbp
   20224:	53                   	push   %rbx
   20225:	83 ec 28             	sub    $0x28,%esp
   20228:	4c 01 fc             	add    %r15,%rsp
   2022b:	89 7d dc             	mov    %edi,-0x24(%rbp)
   2022e:	89 75 d8             	mov    %esi,-0x28(%rbp)
   20231:	c7 45 e4 01 00 00 00 	movl   $0x1,-0x1c(%rbp)
   20238:	c7 45 e8 02 00 00 00 	movl   $0x2,-0x18(%rbp)
   2023f:	90                   	nop
   20240:	8b 55 e8             	mov    -0x18(%rbp),%edx
   20243:	8b 45 e4             	mov    -0x1c(%rbp),%eax
   20246:	89 d6                	mov    %edx,%esi
   20248:	89 c7                	mov    %eax,%edi
   2024a:	66 90                	xchg   %ax,%ax
   2024c:	66 66 66 66 66 66 2e 	data32 data32 data32 data32 data32 nopw %cs:0x0(%rax,%rax,1)
   20253:	0f 1f 84 00 00 00 00 
   2025a:	00 
   2025b:	e8 80 ff ff ff       	callq  201e0 <sum>
   20260:	89 45 ec             	mov    %eax,-0x14(%rbp)
   20263:	b8 c0 01 02 10       	mov    $0x100201c0,%eax
   20268:	89 c3                	mov    %eax,%ebx
   2026a:	8b 4d ec             	mov    -0x14(%rbp),%ecx
   2026d:	8b 55 e8             	mov    -0x18(%rbp),%edx
   20270:	8b 45 e4             	mov    -0x1c(%rbp),%eax
   20273:	89 c6                	mov    %eax,%esi
   20275:	89 df                	mov    %ebx,%edi
   20277:	b8 00 00 00 00       	mov    $0x0,%eax
   2027c:	0f 1f 40 00          	nopl   0x0(%rax)
   20280:	66 66 66 2e 0f 1f 84 	data32 data32 nopw %cs:0x0(%rax,%rax,1)
   20287:	00 00 00 00 00 
   2028c:	66 66 66 66 66 66 2e 	data32 data32 data32 data32 data32 nopw %cs:0x0(%rax,%rax,1)
   20293:	0f 1f 84 00 00 00 00 
   2029a:	00 
   2029b:	e8 c0 14 00 00       	callq  21760 <printf>
   202a0:	b8 00 00 00 00       	mov    $0x0,%eax
   202a5:	83 c4 28             	add    $0x28,%esp
   202a8:	4c 01 fc             	add    %r15,%rsp
   202ab:	5b                   	pop    %rbx
   202ac:	41 5b                	pop    %r11
   202ae:	44 89 dd             	mov    %r11d,%ebp
   202b1:	4c 01 fd             	add    %r15,%rbp
   202b4:	41 5b                	pop    %r11
   202b6:	41 83 e3 e0          	and    $0xffffffe0,%r11d
   202ba:	4d 01 fb             	add    %r15,%r11
   202bd:	41 ff e3             	jmpq   *%r11

00000000000202c0 <_exit>:
   202c0:	83 ec 08             	sub    $0x8,%esp
   202c3:	4c 01 fc             	add    %r15,%rsp
   202c6:	8b 05 d4 39 01 10    	mov    0x100139d4(%rip),%eax        # 10033ca0 <__libnacl_irt_basic>
   202cc:	66 66 66 2e 0f 1f 84 	data32 data32 nopw %cs:0x0(%rax,%rax,1)
   202d3:	00 00 00 00 00 
   202d8:	83 e0 e0             	and    $0xffffffe0,%eax
   202db:	4c 01 f8             	add    %r15,%rax
   202de:	ff d0                	callq  *%rax
   202e0:	0f 0b                	ud2    
   202e2:	90                   	nop
   202e3:	90                   	nop
   202e4:	90                   	nop
   202e5:	90                   	nop
   202e6:	90                   	nop
   202e7:	90                   	nop
   202e8:	90                   	nop
   202e9:	90                   	nop
   202ea:	90                   	nop
   202eb:	90                   	nop
   202ec:	90                   	nop
   202ed:	90                   	nop
   202ee:	90                   	nop
   202ef:	90                   	nop
   202f0:	90                   	nop
   202f1:	90                   	nop
   202f2:	90                   	nop
   202f3:	90                   	nop
   202f4:	90                   	nop
   202f5:	90                   	nop
   202f6:	90                   	nop
   202f7:	90                   	nop
   202f8:	90                   	nop
   202f9:	90                   	nop
   202fa:	90                   	nop
   202fb:	90                   	nop
   202fc:	90                   	nop
   202fd:	90                   	nop
   202fe:	90                   	nop
   202ff:	90                   	nop

0000000000020300 <_start>:
   20300:	89 f8                	mov    %edi,%eax
   20302:	4c 89 64 24 e8       	mov    %r12,-0x18(%rsp)
   20307:	4c 89 6c 24 f0       	mov    %r13,-0x10(%rsp)
   2030c:	48 89 5c 24 e0       	mov    %rbx,-0x20(%rsp)
   20311:	4c 89 74 24 f8       	mov    %r14,-0x8(%rsp)
   20316:	83 ec 38             	sub    $0x38,%esp
   20319:	4c 01 fc             	add    %r15,%rsp
   2031c:	0f 1f 40 00          	nopl   0x0(%rax)
   20320:	89 c0                	mov    %eax,%eax
   20322:	41 8b 5c 07 08       	mov    0x8(%r15,%rax,1),%ebx
   20327:	44 8d 60 0c          	lea    0xc(%rax),%r12d
   2032b:	89 7c 24 0c          	mov    %edi,0xc(%rsp)
   2032f:	89 c0                	mov    %eax,%eax
   20331:	41 8b 7c 07 04       	mov    0x4(%r15,%rax,1),%edi
   20336:	89 c0                	mov    %eax,%eax
   20338:	45 8b 34 07          	mov    (%r15,%rax,1),%r14d
   2033c:	8d 44 24 0c          	lea    0xc(%rsp),%eax
   20340:	45 8d 6c 9c 04       	lea    0x4(%r12,%rbx,4),%r13d
   20345:	89 05 91 38 01 10    	mov    %eax,0x10013891(%rip)        # 10033bdc <__nacl_initial_thread_stack_end>
   2034b:	41 8d 7c bd 04       	lea    0x4(%r13,%rdi,4),%edi
   20350:	44 89 2d 69 2c 01 10 	mov    %r13d,0x10012c69(%rip)        # 10032fc0 <environ>
   20357:	0f 1f 40 00          	nopl   0x0(%rax)
   2035b:	e8 20 05 00 00       	callq  20880 <__libnacl_irt_init>
   20360:	4d 85 f6             	test   %r14,%r14
   20363:	74 1b                	je     20380 <_start+0x80>
   20365:	44 89 f7             	mov    %r14d,%edi
   20368:	0f 1f 40 00          	nopl   0x0(%rax)
   2036c:	66 66 66 66 66 66 2e 	data32 data32 data32 data32 data32 nopw %cs:0x0(%rax,%rax,1)
   20373:	0f 1f 84 00 00 00 00 
   2037a:	00 
   2037b:	e8 80 0d 00 00       	callq  21100 <atexit>
   20380:	bf c0 11 02 00       	mov    $0x211c0,%edi
   20385:	0f 1f 80 00 00 00 00 	nopl   0x0(%rax)
   2038c:	66 66 66 66 66 66 2e 	data32 data32 data32 data32 data32 nopw %cs:0x0(%rax,%rax,1)
   20393:	0f 1f 84 00 00 00 00 
   2039a:	00 
   2039b:	e8 60 0d 00 00       	callq  21100 <atexit>
   203a0:	66 66 66 2e 0f 1f 84 	data32 data32 nopw %cs:0x0(%rax,%rax,1)
   203a7:	00 00 00 00 00 
   203ac:	66 66 66 66 66 66 2e 	data32 data32 data32 data32 data32 nopw %cs:0x0(%rax,%rax,1)
   203b3:	0f 1f 84 00 00 00 00 
   203ba:	00 
   203bb:	e8 e0 00 00 00       	callq  204a0 <__pthread_initialize>
   203c0:	66 66 66 2e 0f 1f 84 	data32 data32 nopw %cs:0x0(%rax,%rax,1)
   203c7:	00 00 00 00 00 
   203cc:	66 66 66 66 66 66 2e 	data32 data32 data32 data32 data32 nopw %cs:0x0(%rax,%rax,1)
   203d3:	0f 1f 84 00 00 00 00 
   203da:	00 
   203db:	e8 00 0f 00 00       	callq  212e0 <__libc_init_array>
   203e0:	ba 00 00 00 00       	mov    $0x0,%edx
   203e5:	b8 20 02 02 00       	mov    $0x20220,%eax
   203ea:	89 df                	mov    %ebx,%edi
   203ec:	85 d2                	test   %edx,%edx
   203ee:	ba 00 00 00 00       	mov    $0x0,%edx
   203f3:	44 89 e6             	mov    %r12d,%esi
   203f6:	48 0f 45 c2          	cmovne %rdx,%rax
   203fa:	44 89 ea             	mov    %r13d,%edx
   203fd:	0f 1f 00             	nopl   (%rax)
   20400:	66 0f 1f 84 00 00 00 	nopw   0x0(%rax,%rax,1)
   20407:	00 00 
   20409:	66 66 66 66 66 66 2e 	data32 data32 data32 data32 data32 nopw %cs:0x0(%rax,%rax,1)
   20410:	0f 1f 84 00 00 00 00 
   20417:	00 
   20418:	83 e0 e0             	and    $0xffffffe0,%eax
   2041b:	4c 01 f8             	add    %r15,%rax
   2041e:	ff d0                	callq  *%rax
   20420:	89 c7                	mov    %eax,%edi
   20422:	66 2e 0f 1f 84 00 00 	nopw   %cs:0x0(%rax,%rax,1)
   20429:	00 00 00 
   2042c:	66 66 66 66 66 66 2e 	data32 data32 data32 data32 data32 nopw %cs:0x0(%rax,%rax,1)
   20433:	0f 1f 84 00 00 00 00 
   2043a:	00 
   2043b:	e8 20 0d 00 00       	callq  21160 <exit>

0000000000020440 <__nacl_add_tp>:
   20440:	53                   	push   %rbx
   20441:	89 fb                	mov    %edi,%ebx
   20443:	66 0f 1f 84 00 00 00 	nopw   0x0(%rax,%rax,1)
   2044a:	00 00 
   2044c:	66 66 66 66 66 66 2e 	data32 data32 data32 data32 data32 nopw %cs:0x0(%rax,%rax,1)
   20453:	0f 1f 84 00 00 00 00 
   2045a:	00 
   2045b:	e8 60 06 00 00       	callq  20ac0 <nacl_tls_get>
   20460:	01 d8                	add    %ebx,%eax
   20462:	5b                   	pop    %rbx
   20463:	41 5b                	pop    %r11
   20465:	41 83 e3 e0          	and    $0xffffffe0,%r11d
   20469:	4d 01 fb             	add    %r15,%r11
   2046c:	41 ff e3             	jmpq   *%r11
   2046f:	90                   	nop
   20470:	90                   	nop
   20471:	90                   	nop
   20472:	90                   	nop
   20473:	90                   	nop
   20474:	90                   	nop
   20475:	90                   	nop
   20476:	90                   	nop
   20477:	90                   	nop
   20478:	90                   	nop
   20479:	90                   	nop
   2047a:	90                   	nop
   2047b:	90                   	nop
   2047c:	90                   	nop
   2047d:	90                   	nop
   2047e:	90                   	nop
   2047f:	90                   	nop

0000000000020480 <__nacl_read_tp>:
   20480:	e9 3b 06 00 00       	jmpq   20ac0 <nacl_tls_get>
   20485:	90                   	nop
   20486:	90                   	nop
   20487:	90                   	nop
   20488:	90                   	nop
   20489:	90                   	nop
   2048a:	90                   	nop
   2048b:	90                   	nop
   2048c:	90                   	nop
   2048d:	90                   	nop
   2048e:	90                   	nop
   2048f:	90                   	nop
   20490:	90                   	nop
   20491:	90                   	nop
   20492:	90                   	nop
   20493:	90                   	nop
   20494:	90                   	nop
   20495:	90                   	nop
   20496:	90                   	nop
   20497:	90                   	nop
   20498:	90                   	nop
   20499:	90                   	nop
   2049a:	90                   	nop
   2049b:	90                   	nop
   2049c:	90                   	nop
   2049d:	90                   	nop
   2049e:	90                   	nop
   2049f:	90                   	nop

00000000000204a0 <__pthread_initialize>:
   204a0:	bf 04 00 00 00       	mov    $0x4,%edi
   204a5:	e9 36 06 00 00       	jmpq   20ae0 <__pthread_initialize_minimal>
   204aa:	90                   	nop
   204ab:	90                   	nop
   204ac:	90                   	nop
   204ad:	90                   	nop
   204ae:	90                   	nop
   204af:	90                   	nop
   204b0:	90                   	nop
   204b1:	90                   	nop
   204b2:	90                   	nop
   204b3:	90                   	nop
   204b4:	90                   	nop
   204b5:	90                   	nop
   204b6:	90                   	nop
   204b7:	90                   	nop
   204b8:	90                   	nop
   204b9:	90                   	nop
   204ba:	90                   	nop
   204bb:	90                   	nop
   204bc:	90                   	nop
   204bd:	90                   	nop
   204be:	90                   	nop
   204bf:	90                   	nop

00000000000204c0 <stub_close>:
   204c0:	41 5b                	pop    %r11
   204c2:	b8 26 00 00 00       	mov    $0x26,%eax
   204c7:	41 83 e3 e0          	and    $0xffffffe0,%r11d
   204cb:	4d 01 fb             	add    %r15,%r11
   204ce:	41 ff e3             	jmpq   *%r11
   204d1:	66 66 66 66 66 66 2e 	data32 data32 data32 data32 data32 nopw %cs:0x0(%rax,%rax,1)
   204d8:	0f 1f 84 00 00 00 00 
   204df:	00 

00000000000204e0 <stub_dup>:
   204e0:	41 5b                	pop    %r11
   204e2:	b8 26 00 00 00       	mov    $0x26,%eax
   204e7:	41 83 e3 e0          	and    $0xffffffe0,%r11d
   204eb:	4d 01 fb             	add    %r15,%r11
   204ee:	41 ff e3             	jmpq   *%r11
   204f1:	66 66 66 66 66 66 2e 	data32 data32 data32 data32 data32 nopw %cs:0x0(%rax,%rax,1)
   204f8:	0f 1f 84 00 00 00 00 
   204ff:	00 

0000000000020500 <stub_dup2>:
   20500:	41 5b                	pop    %r11
   20502:	b8 26 00 00 00       	mov    $0x26,%eax
   20507:	41 83 e3 e0          	and    $0xffffffe0,%r11d
   2050b:	4d 01 fb             	add    %r15,%r11
   2050e:	41 ff e3             	jmpq   *%r11
   20511:	66 66 66 66 66 66 2e 	data32 data32 data32 data32 data32 nopw %cs:0x0(%rax,%rax,1)
   20518:	0f 1f 84 00 00 00 00 
   2051f:	00 

0000000000020520 <stub_read>:
   20520:	41 5b                	pop    %r11
   20522:	b8 26 00 00 00       	mov    $0x26,%eax
   20527:	41 83 e3 e0          	and    $0xffffffe0,%r11d
   2052b:	4d 01 fb             	add    %r15,%r11
   2052e:	41 ff e3             	jmpq   *%r11
   20531:	66 66 66 66 66 66 2e 	data32 data32 data32 data32 data32 nopw %cs:0x0(%rax,%rax,1)
   20538:	0f 1f 84 00 00 00 00 
   2053f:	00 

0000000000020540 <stub_write>:
   20540:	41 5b                	pop    %r11
   20542:	b8 26 00 00 00       	mov    $0x26,%eax
   20547:	41 83 e3 e0          	and    $0xffffffe0,%r11d
   2054b:	4d 01 fb             	add    %r15,%r11
   2054e:	41 ff e3             	jmpq   *%r11
   20551:	66 66 66 66 66 66 2e 	data32 data32 data32 data32 data32 nopw %cs:0x0(%rax,%rax,1)
   20558:	0f 1f 84 00 00 00 00 
   2055f:	00 

0000000000020560 <stub_seek>:
   20560:	41 5b                	pop    %r11
   20562:	b8 26 00 00 00       	mov    $0x26,%eax
   20567:	41 83 e3 e0          	and    $0xffffffe0,%r11d
   2056b:	4d 01 fb             	add    %r15,%r11
   2056e:	41 ff e3             	jmpq   *%r11
   20571:	66 66 66 66 66 66 2e 	data32 data32 data32 data32 data32 nopw %cs:0x0(%rax,%rax,1)
   20578:	0f 1f 84 00 00 00 00 
   2057f:	00 

0000000000020580 <stub_fstat>:
   20580:	41 5b                	pop    %r11
   20582:	b8 26 00 00 00       	mov    $0x26,%eax
   20587:	41 83 e3 e0          	and    $0xffffffe0,%r11d
   2058b:	4d 01 fb             	add    %r15,%r11
   2058e:	41 ff e3             	jmpq   *%r11
   20591:	66 66 66 66 66 66 2e 	data32 data32 data32 data32 data32 nopw %cs:0x0(%rax,%rax,1)
   20598:	0f 1f 84 00 00 00 00 
   2059f:	00 

00000000000205a0 <stub_getdents>:
   205a0:	41 5b                	pop    %r11
   205a2:	b8 26 00 00 00       	mov    $0x26,%eax
   205a7:	41 83 e3 e0          	and    $0xffffffe0,%r11d
   205ab:	4d 01 fb             	add    %r15,%r11
   205ae:	41 ff e3             	jmpq   *%r11
   205b1:	66 66 66 66 66 66 2e 	data32 data32 data32 data32 data32 nopw %cs:0x0(%rax,%rax,1)
   205b8:	0f 1f 84 00 00 00 00 
   205bf:	00 

00000000000205c0 <__libnacl_irt_init_fn>:
   205c0:	53                   	push   %rbx
   205c1:	89 fb                	mov    %edi,%ebx
   205c3:	89 f6                	mov    %esi,%esi
   205c5:	89 db                	mov    %ebx,%ebx
   205c7:	41 8b 14 1f          	mov    (%r15,%rbx,1),%edx
   205cb:	85 d2                	test   %edx,%edx
   205cd:	74 51                	je     20620 <__libnacl_irt_init_fn+0x60>
   205cf:	66 90                	xchg   %ax,%ax
   205d1:	66 66 66 66 66 66 2e 	data32 data32 data32 data32 data32 nopw %cs:0x0(%rax,%rax,1)
   205d8:	0f 1f 84 00 00 00 00 
   205df:	00 
   205e0:	b8 01 00 00 00       	mov    $0x1,%eax
   205e5:	66 66 66 2e 0f 1f 84 	data32 data32 nopw %cs:0x0(%rax,%rax,1)
   205ec:	00 00 00 00 00 
   205f1:	66 66 66 66 66 66 2e 	data32 data32 data32 data32 data32 nopw %cs:0x0(%rax,%rax,1)
   205f8:	0f 1f 84 00 00 00 00 
   205ff:	00 
   20600:	5b                   	pop    %rbx
   20601:	41 5b                	pop    %r11
   20603:	41 83 e3 e0          	and    $0xffffffe0,%r11d
   20607:	4d 01 fb             	add    %r15,%r11
   2060a:	41 ff e3             	jmpq   *%r11
   2060d:	0f 1f 40 00          	nopl   0x0(%rax)
   20611:	66 66 66 66 66 66 2e 	data32 data32 data32 data32 data32 nopw %cs:0x0(%rax,%rax,1)
   20618:	0f 1f 84 00 00 00 00 
   2061f:	00 
   20620:	66 0f 1f 84 00 00 00 	nopw   0x0(%rax,%rax,1)
   20627:	00 00 
   20629:	66 66 66 66 66 66 2e 	data32 data32 data32 data32 data32 nopw %cs:0x0(%rax,%rax,1)
   20630:	0f 1f 84 00 00 00 00 
   20637:	00 
   20638:	83 e6 e0             	and    $0xffffffe0,%esi
   2063b:	4c 01 fe             	add    %r15,%rsi
   2063e:	ff d6                	callq  *%rsi
   20640:	89 db                	mov    %ebx,%ebx
   20642:	41 8b 04 1f          	mov    (%r15,%rbx,1),%eax
   20646:	85 c0                	test   %eax,%eax
   20648:	75 96                	jne    205e0 <__libnacl_irt_init_fn+0x20>
   2064a:	66 90                	xchg   %ax,%ax
   2064c:	66 66 66 66 66 66 2e 	data32 data32 data32 data32 data32 nopw %cs:0x0(%rax,%rax,1)
   20653:	0f 1f 84 00 00 00 00 
   2065a:	00 
   2065b:	e8 c0 0a 00 00       	callq  21120 <__errno>
   20660:	89 c0                	mov    %eax,%eax
   20662:	89 c0                	mov    %eax,%eax
   20664:	41 c7 04 07 26 00 00 	movl   $0x26,(%r15,%rax,1)
   2066b:	00 
   2066c:	31 c0                	xor    %eax,%eax
   2066e:	eb 90                	jmp    20600 <__libnacl_irt_init_fn+0x40>
   20670:	90                   	nop
   20671:	66 66 66 66 66 66 2e 	data32 data32 data32 data32 data32 nopw %cs:0x0(%rax,%rax,1)
   20678:	0f 1f 84 00 00 00 00 
   2067f:	00 

0000000000020680 <__libnacl_fatal>:
   20680:	83 ec 18             	sub    $0x18,%esp
   20683:	4c 01 fc             	add    %r15,%rsp
   20686:	8b 05 24 29 01 10    	mov    0x10012924(%rip),%eax        # 10032fb0 <__libnacl_irt_fdio+0x10>
   2068c:	89 fe                	mov    %edi,%esi
   2068e:	48 85 c0             	test   %rax,%rax
   20691:	74 6d                	je     20700 <__libnacl_fatal+0x80>
   20693:	31 d2                	xor    %edx,%edx
   20695:	89 f6                	mov    %esi,%esi
   20697:	41 80 3c 37 00       	cmpb   $0x0,(%r15,%rsi,1)
   2069c:	0f 1f 40 00          	nopl   0x0(%rax)
   206a0:	74 3e                	je     206e0 <__libnacl_fatal+0x60>
   206a2:	8d 4e 01             	lea    0x1(%rsi),%ecx
   206a5:	66 66 66 2e 0f 1f 84 	data32 data32 nopw %cs:0x0(%rax,%rax,1)
   206ac:	00 00 00 00 00 
   206b1:	66 66 66 66 66 66 2e 	data32 data32 data32 data32 data32 nopw %cs:0x0(%rax,%rax,1)
   206b8:	0f 1f 84 00 00 00 00 
   206bf:	00 
   206c0:	89 c9                	mov    %ecx,%ecx
   206c2:	41 0f b6 3c 0f       	movzbl (%r15,%rcx,1),%edi
   206c7:	83 c2 01             	add    $0x1,%edx
   206ca:	83 c1 01             	add    $0x1,%ecx
   206cd:	40 84 ff             	test   %dil,%dil
   206d0:	75 ee                	jne    206c0 <__libnacl_fatal+0x40>
   206d2:	66 66 66 66 66 2e 0f 	data32 data32 data32 data32 nopw %cs:0x0(%rax,%rax,1)
   206d9:	1f 84 00 00 00 00 00 
   206e0:	8d 4c 24 0c          	lea    0xc(%rsp),%ecx
   206e4:	bf 02 00 00 00       	mov    $0x2,%edi
   206e9:	66 66 66 66 66 66 2e 	data32 data32 data32 data32 data32 nopw %cs:0x0(%rax,%rax,1)
   206f0:	0f 1f 84 00 00 00 00 
   206f7:	00 
   206f8:	83 e0 e0             	and    $0xffffffe0,%eax
   206fb:	4c 01 f8             	add    %r15,%rax
   206fe:	ff d0                	callq  *%rax
   20700:	0f 0b                	ud2    
   20702:	66 66 66 66 66 66 2e 	data32 data32 data32 data32 data32 nopw %cs:0x0(%rax,%rax,1)
   20709:	0f 1f 84 00 00 00 00 
   20710:	00 
   20711:	66 66 66 66 66 66 2e 	data32 data32 data32 data32 data32 nopw %cs:0x0(%rax,%rax,1)
   20718:	0f 1f 84 00 00 00 00 
   2071f:	00 

0000000000020720 <__libnacl_irt_query>:
   20720:	48 89 5c 24 f0       	mov    %rbx,-0x10(%rsp)
   20725:	4c 89 64 24 f8       	mov    %r12,-0x8(%rsp)
   2072a:	83 ec 28             	sub    $0x28,%esp
   2072d:	4c 01 fc             	add    %r15,%rsp
   20730:	8b 05 aa 34 01 10    	mov    0x100134aa(%rip),%eax        # 10033be0 <__nacl_irt_query>
   20736:	89 d3                	mov    %edx,%ebx
   20738:	41 89 fc             	mov    %edi,%r12d
   2073b:	89 f6                	mov    %esi,%esi
   2073d:	48 85 c0             	test   %rax,%rax
   20740:	74 7e                	je     207c0 <__libnacl_irt_query+0xa0>
   20742:	66 66 66 66 66 66 2e 	data32 data32 data32 data32 data32 nopw %cs:0x0(%rax,%rax,1)
   20749:	0f 1f 84 00 00 00 00 
   20750:	00 
   20751:	66 66 66 66 66 66 2e 	data32 data32 data32 data32 data32 nopw %cs:0x0(%rax,%rax,1)
   20758:	0f 1f 84 00 00 00 00 
   2075f:	00 
   20760:	89 da                	mov    %ebx,%edx
   20762:	44 89 e7             	mov    %r12d,%edi
   20765:	0f 1f 40 00          	nopl   0x0(%rax)
   20769:	66 66 66 66 66 66 2e 	data32 data32 data32 data32 data32 nopw %cs:0x0(%rax,%rax,1)
   20770:	0f 1f 84 00 00 00 00 
   20777:	00 
   20778:	83 e0 e0             	and    $0xffffffe0,%eax
   2077b:	4c 01 f8             	add    %r15,%rax
   2077e:	ff d0                	callq  *%rax
   20780:	39 c3                	cmp    %eax,%ebx
   20782:	4c 8b 64 24 20       	mov    0x20(%rsp),%r12
   20787:	48 8b 5c 24 18       	mov    0x18(%rsp),%rbx
   2078c:	0f 94 c0             	sete   %al
   2078f:	83 c4 28             	add    $0x28,%esp
   20792:	4c 01 fc             	add    %r15,%rsp
   20795:	41 5b                	pop    %r11
   20797:	0f b6 c0             	movzbl %al,%eax
   2079a:	66 0f 1f 44 00 00    	nopw   0x0(%rax,%rax,1)
   207a0:	41 83 e3 e0          	and    $0xffffffe0,%r11d
   207a4:	4d 01 fb             	add    %r15,%r11
   207a7:	41 ff e3             	jmpq   *%r11
   207aa:	0f 1f 80 00 00 00 00 	nopl   0x0(%rax)
   207b1:	66 66 66 66 66 66 2e 	data32 data32 data32 data32 data32 nopw %cs:0x0(%rax,%rax,1)
   207b8:	0f 1f 84 00 00 00 00 
   207bf:	00 
   207c0:	bf d8 01 02 10       	mov    $0x100201d8,%edi
   207c5:	48 89 74 24 08       	mov    %rsi,0x8(%rsp)
   207ca:	66 90                	xchg   %ax,%ax
   207cc:	66 66 66 66 66 66 2e 	data32 data32 data32 data32 data32 nopw %cs:0x0(%rax,%rax,1)
   207d3:	0f 1f 84 00 00 00 00 
   207da:	00 
   207db:	e8 a0 fe ff ff       	callq  20680 <__libnacl_fatal>
   207e0:	8b 05 fa 33 01 10    	mov    0x100133fa(%rip),%eax        # 10033be0 <__nacl_irt_query>
   207e6:	48 8b 74 24 08       	mov    0x8(%rsp),%rsi
   207eb:	e9 70 ff ff ff       	jmpq   20760 <__libnacl_irt_query+0x40>
   207f0:	90                   	nop
   207f1:	66 66 66 66 66 66 2e 	data32 data32 data32 data32 data32 nopw %cs:0x0(%rax,%rax,1)
   207f8:	0f 1f 84 00 00 00 00 
   207ff:	00 

0000000000020800 <__libnacl_mandatory_irt_query>:
   20800:	83 ec 08             	sub    $0x8,%esp
   20803:	4c 01 fc             	add    %r15,%rsp
   20806:	89 ff                	mov    %edi,%edi
   20808:	89 f6                	mov    %esi,%esi
   2080a:	66 90                	xchg   %ax,%ax
   2080c:	66 66 66 66 66 66 2e 	data32 data32 data32 data32 data32 nopw %cs:0x0(%rax,%rax,1)
   20813:	0f 1f 84 00 00 00 00 
   2081a:	00 
   2081b:	e8 00 ff ff ff       	callq  20720 <__libnacl_irt_query>
   20820:	85 c0                	test   %eax,%eax
   20822:	74 1c                	je     20840 <__libnacl_mandatory_irt_query+0x40>
   20824:	83 c4 08             	add    $0x8,%esp
   20827:	4c 01 fc             	add    %r15,%rsp
   2082a:	41 5b                	pop    %r11
   2082c:	41 83 e3 e0          	and    $0xffffffe0,%r11d
   20830:	4d 01 fb             	add    %r15,%r11
   20833:	41 ff e3             	jmpq   *%r11
   20836:	66 2e 0f 1f 84 00 00 	nopw   %cs:0x0(%rax,%rax,1)
   2083d:	00 00 00 
   20840:	bf 00 02 02 10       	mov    $0x10020200,%edi
   20845:	83 c4 08             	add    $0x8,%esp
   20848:	4c 01 fc             	add    %r15,%rsp
   2084b:	e9 30 fe ff ff       	jmpq   20680 <__libnacl_fatal>
   20850:	90                   	nop
   20851:	90                   	nop
   20852:	90                   	nop
   20853:	90                   	nop
   20854:	90                   	nop
   20855:	90                   	nop
   20856:	90                   	nop
   20857:	90                   	nop
   20858:	90                   	nop
   20859:	90                   	nop
   2085a:	90                   	nop
   2085b:	90                   	nop
   2085c:	90                   	nop
   2085d:	90                   	nop
   2085e:	90                   	nop
   2085f:	90                   	nop

0000000000020860 <__libnacl_irt_mprotect>:
   20860:	41 5b                	pop    %r11
   20862:	b8 26 00 00 00       	mov    $0x26,%eax
   20867:	41 83 e3 e0          	and    $0xffffffe0,%r11d
   2086b:	4d 01 fb             	add    %r15,%r11
   2086e:	41 ff e3             	jmpq   *%r11
   20871:	66 66 66 66 66 66 2e 	data32 data32 data32 data32 data32 nopw %cs:0x0(%rax,%rax,1)
   20878:	0f 1f 84 00 00 00 00 
   2087f:	00 

0000000000020880 <__libnacl_irt_init>:
   20880:	53                   	push   %rbx
   20881:	89 ff                	mov    %edi,%edi
   20883:	83 ec 10             	sub    $0x10,%esp
   20886:	4c 01 fc             	add    %r15,%rsp
   20889:	89 ff                	mov    %edi,%edi
   2088b:	41 8b 04 3f          	mov    (%r15,%rdi,1),%eax
   2088f:	85 c0                	test   %eax,%eax
   20891:	74 6d                	je     20900 <__libnacl_irt_init+0x80>
   20893:	8b 15 47 33 01 10    	mov    0x10013347(%rip),%edx        # 10033be0 <__nacl_irt_query>
   20899:	eb 25                	jmp    208c0 <__libnacl_irt_init+0x40>
   2089b:	0f 1f 44 00 00       	nopl   0x0(%rax,%rax,1)
   208a0:	83 c7 08             	add    $0x8,%edi
   208a3:	89 ff                	mov    %edi,%edi
   208a5:	41 8b 04 3f          	mov    (%r15,%rdi,1),%eax
   208a9:	85 c0                	test   %eax,%eax
   208ab:	74 33                	je     208e0 <__libnacl_irt_init+0x60>
   208ad:	0f 1f 40 00          	nopl   0x0(%rax)
   208b1:	66 66 66 66 66 66 2e 	data32 data32 data32 data32 data32 nopw %cs:0x0(%rax,%rax,1)
   208b8:	0f 1f 84 00 00 00 00 
   208bf:	00 
   208c0:	83 f8 20             	cmp    $0x20,%eax
   208c3:	75 db                	jne    208a0 <__libnacl_irt_init+0x20>
   208c5:	89 ff                	mov    %edi,%edi
   208c7:	41 8b 54 3f 04       	mov    0x4(%r15,%rdi,1),%edx
   208cc:	83 c7 08             	add    $0x8,%edi
   208cf:	89 ff                	mov    %edi,%edi
   208d1:	41 8b 04 3f          	mov    (%r15,%rdi,1),%eax
   208d5:	85 c0                	test   %eax,%eax
   208d7:	75 e7                	jne    208c0 <__libnacl_irt_init+0x40>
   208d9:	0f 1f 80 00 00 00 00 	nopl   0x0(%rax)
   208e0:	89 15 fa 32 01 10    	mov    %edx,0x100132fa(%rip)        # 10033be0 <__nacl_irt_query>
   208e6:	66 66 2e 0f 1f 84 00 	data32 nopw %cs:0x0(%rax,%rax,1)
   208ed:	00 00 00 00 
   208f1:	66 66 66 66 66 66 2e 	data32 data32 data32 data32 data32 nopw %cs:0x0(%rax,%rax,1)
   208f8:	0f 1f 84 00 00 00 00 
   208ff:	00 
   20900:	ba 20 00 00 00       	mov    $0x20,%edx
   20905:	be a0 2f 03 10       	mov    $0x10032fa0,%esi
   2090a:	bf 38 02 02 10       	mov    $0x10020238,%edi
   2090f:	66 66 66 2e 0f 1f 84 	data32 data32 nopw %cs:0x0(%rax,%rax,1)
   20916:	00 00 00 00 00 
   2091b:	e8 00 fe ff ff       	callq  20720 <__libnacl_irt_query>
   20920:	85 c0                	test   %eax,%eax
   20922:	0f 84 18 01 00 00    	je     20a40 <__libnacl_irt_init+0x1c0>
   20928:	66 0f 1f 84 00 00 00 	nopw   0x0(%rax,%rax,1)
   2092f:	00 00 
   20931:	66 66 66 66 66 66 2e 	data32 data32 data32 data32 data32 nopw %cs:0x0(%rax,%rax,1)
   20938:	0f 1f 84 00 00 00 00 
   2093f:	00 
   20940:	ba 18 00 00 00       	mov    $0x18,%edx
   20945:	be a0 3c 03 10       	mov    $0x10033ca0,%esi
   2094a:	bf 60 02 02 10       	mov    $0x10020260,%edi
   2094f:	66 66 66 2e 0f 1f 84 	data32 data32 nopw %cs:0x0(%rax,%rax,1)
   20956:	00 00 00 00 00 
   2095b:	e8 a0 fe ff ff       	callq  20800 <__libnacl_mandatory_irt_query>
   20960:	ba 0c 00 00 00       	mov    $0xc,%edx
   20965:	be 48 3c 03 10       	mov    $0x10033c48,%esi
   2096a:	bf 73 02 02 10       	mov    $0x10020273,%edi
   2096f:	66 66 66 2e 0f 1f 84 	data32 data32 nopw %cs:0x0(%rax,%rax,1)
   20976:	00 00 00 00 00 
   2097b:	e8 a0 fd ff ff       	callq  20720 <__libnacl_irt_query>
   20980:	85 c0                	test   %eax,%eax
   20982:	74 5c                	je     209e0 <__libnacl_irt_init+0x160>
   20984:	66 66 66 66 2e 0f 1f 	data32 data32 data32 nopw %cs:0x0(%rax,%rax,1)
   2098b:	84 00 00 00 00 00 
   20991:	66 66 66 66 66 66 2e 	data32 data32 data32 data32 data32 nopw %cs:0x0(%rax,%rax,1)
   20998:	0f 1f 84 00 00 00 00 
   2099f:	00 
   209a0:	ba 08 00 00 00       	mov    $0x8,%edx
   209a5:	be b8 3c 03 10       	mov    $0x10033cb8,%esi
   209aa:	bf af 02 02 10       	mov    $0x100202af,%edi
   209af:	66 66 66 2e 0f 1f 84 	data32 data32 nopw %cs:0x0(%rax,%rax,1)
   209b6:	00 00 00 00 00 
   209bb:	e8 40 fe ff ff       	callq  20800 <__libnacl_mandatory_irt_query>
   209c0:	83 c4 10             	add    $0x10,%esp
   209c3:	4c 01 fc             	add    %r15,%rsp
   209c6:	5b                   	pop    %rbx
   209c7:	41 5b                	pop    %r11
   209c9:	41 83 e3 e0          	and    $0xffffffe0,%r11d
   209cd:	4d 01 fb             	add    %r15,%r11
   209d0:	41 ff e3             	jmpq   *%r11
   209d3:	66 66 66 66 2e 0f 1f 	data32 data32 data32 nopw %cs:0x0(%rax,%rax,1)
   209da:	84 00 00 00 00 00 
   209e0:	ba 10 00 00 00       	mov    $0x10,%edx
   209e5:	89 e6                	mov    %esp,%esi
   209e7:	bf 87 02 02 10       	mov    $0x10020287,%edi
   209ec:	66 66 66 66 66 66 2e 	data32 data32 data32 data32 data32 nopw %cs:0x0(%rax,%rax,1)
   209f3:	0f 1f 84 00 00 00 00 
   209fa:	00 
   209fb:	e8 20 fd ff ff       	callq  20720 <__libnacl_irt_query>
   20a00:	85 c0                	test   %eax,%eax
   20a02:	74 7c                	je     20a80 <__libnacl_irt_init+0x200>
   20a04:	66 66 66 66 2e 0f 1f 	data32 data32 data32 nopw %cs:0x0(%rax,%rax,1)
   20a0b:	84 00 00 00 00 00 
   20a11:	66 66 66 66 66 66 2e 	data32 data32 data32 data32 data32 nopw %cs:0x0(%rax,%rax,1)
   20a18:	0f 1f 84 00 00 00 00 
   20a1f:	00 
   20a20:	8b 44 24 04          	mov    0x4(%rsp),%eax
   20a24:	89 05 1e 32 01 10    	mov    %eax,0x1001321e(%rip)        # 10033c48 <__libnacl_irt_memory>
   20a2a:	8b 44 24 08          	mov    0x8(%rsp),%eax
   20a2e:	89 05 18 32 01 10    	mov    %eax,0x10013218(%rip)        # 10033c4c <__libnacl_irt_memory+0x4>
   20a34:	e9 67 ff ff ff       	jmpq   209a0 <__libnacl_irt_init+0x120>
   20a39:	0f 1f 80 00 00 00 00 	nopl   0x0(%rax)
   20a40:	ba 20 00 00 00       	mov    $0x20,%edx
   20a45:	be a0 2f 03 10       	mov    $0x10032fa0,%esi
   20a4a:	bf 4a 02 02 10       	mov    $0x1002024a,%edi
   20a4f:	66 66 66 2e 0f 1f 84 	data32 data32 nopw %cs:0x0(%rax,%rax,1)
   20a56:	00 00 00 00 00 
   20a5b:	e8 c0 fc ff ff       	callq  20720 <__libnacl_irt_query>
   20a60:	e9 db fe ff ff       	jmpq   20940 <__libnacl_irt_init+0xc0>
   20a65:	66 66 66 2e 0f 1f 84 	data32 data32 nopw %cs:0x0(%rax,%rax,1)
   20a6c:	00 00 00 00 00 
   20a71:	66 66 66 66 66 66 2e 	data32 data32 data32 data32 data32 nopw %cs:0x0(%rax,%rax,1)
   20a78:	0f 1f 84 00 00 00 00 
   20a7f:	00 
   20a80:	ba 0c 00 00 00       	mov    $0xc,%edx
   20a85:	89 e6                	mov    %esp,%esi
   20a87:	bf 9b 02 02 10       	mov    $0x1002029b,%edi
   20a8c:	66 66 66 66 66 66 2e 	data32 data32 data32 data32 data32 nopw %cs:0x0(%rax,%rax,1)
   20a93:	0f 1f 84 00 00 00 00 
   20a9a:	00 
   20a9b:	e8 60 fd ff ff       	callq  20800 <__libnacl_mandatory_irt_query>
   20aa0:	c7 05 a6 31 01 10 60 	movl   $0x20860,0x100131a6(%rip)        # 10033c50 <__libnacl_irt_memory+0x8>
   20aa7:	08 02 00 
   20aaa:	e9 71 ff ff ff       	jmpq   20a20 <__libnacl_irt_init+0x1a0>
   20aaf:	90                   	nop
   20ab0:	90                   	nop
   20ab1:	90                   	nop
   20ab2:	90                   	nop
   20ab3:	90                   	nop
   20ab4:	90                   	nop
   20ab5:	90                   	nop
   20ab6:	90                   	nop
   20ab7:	90                   	nop
   20ab8:	90                   	nop
   20ab9:	90                   	nop
   20aba:	90                   	nop
   20abb:	90                   	nop
   20abc:	90                   	nop
   20abd:	90                   	nop
   20abe:	90                   	nop
   20abf:	90                   	nop

0000000000020ac0 <nacl_tls_get>:
   20ac0:	8b 05 f6 31 01 10    	mov    0x100131f6(%rip),%eax        # 10033cbc <__libnacl_irt_tls+0x4>
   20ac6:	83 e0 e0             	and    $0xffffffe0,%eax
   20ac9:	4c 01 f8             	add    %r15,%rax
   20acc:	ff e0                	jmpq   *%rax
   20ace:	90                   	nop
   20acf:	90                   	nop
   20ad0:	90                   	nop
   20ad1:	90                   	nop
   20ad2:	90                   	nop
   20ad3:	90                   	nop
   20ad4:	90                   	nop
   20ad5:	90                   	nop
   20ad6:	90                   	nop
   20ad7:	90                   	nop
   20ad8:	90                   	nop
   20ad9:	90                   	nop
   20ada:	90                   	nop
   20adb:	90                   	nop
   20adc:	90                   	nop
   20add:	90                   	nop
   20ade:	90                   	nop
   20adf:	90                   	nop

0000000000020ae0 <__pthread_initialize_minimal>:
   20ae0:	53                   	push   %rbx
   20ae1:	89 fb                	mov    %edi,%ebx
   20ae3:	66 0f 1f 84 00 00 00 	nopw   0x0(%rax,%rax,1)
   20aea:	00 00 
   20aec:	66 66 66 66 66 66 2e 	data32 data32 data32 data32 data32 nopw %cs:0x0(%rax,%rax,1)
   20af3:	0f 1f 84 00 00 00 00 
   20afa:	00 
   20afb:	e8 80 03 00 00       	callq  20e80 <__nacl_tls_combined_size>
   20b00:	ba 20 9f 03 00       	mov    $0x39f20,%edx
   20b05:	85 d2                	test   %edx,%edx
   20b07:	0f 84 93 00 00 00    	je     20ba0 <__pthread_initialize_minimal+0xc0>
   20b0d:	89 c7                	mov    %eax,%edi
   20b0f:	66 66 66 2e 0f 1f 84 	data32 data32 nopw %cs:0x0(%rax,%rax,1)
   20b16:	00 00 00 00 00 
   20b1b:	e8 00 94 01 00       	callq  39f20 <malloc>
   20b20:	89 c7                	mov    %eax,%edi
   20b22:	66 66 66 66 66 66 2e 	data32 data32 data32 data32 data32 nopw %cs:0x0(%rax,%rax,1)
   20b29:	0f 1f 84 00 00 00 00 
   20b30:	00 
   20b31:	66 66 66 66 66 66 2e 	data32 data32 data32 data32 data32 nopw %cs:0x0(%rax,%rax,1)
   20b38:	0f 1f 84 00 00 00 00 
   20b3f:	00 
   20b40:	89 de                	mov    %ebx,%esi
   20b42:	66 2e 0f 1f 84 00 00 	nopw   %cs:0x0(%rax,%rax,1)
   20b49:	00 00 00 
   20b4c:	66 66 66 66 66 66 2e 	data32 data32 data32 data32 data32 nopw %cs:0x0(%rax,%rax,1)
   20b53:	0f 1f 84 00 00 00 00 
   20b5a:	00 
   20b5b:	e8 a0 03 00 00       	callq  20f00 <__nacl_tls_initialize_memory>
   20b60:	89 c7                	mov    %eax,%edi
   20b62:	66 2e 0f 1f 84 00 00 	nopw   %cs:0x0(%rax,%rax,1)
   20b69:	00 00 00 
   20b6c:	66 66 66 66 66 66 2e 	data32 data32 data32 data32 data32 nopw %cs:0x0(%rax,%rax,1)
   20b73:	0f 1f 84 00 00 00 00 
   20b7a:	00 
   20b7b:	e8 e0 04 00 00       	callq  21060 <nacl_tls_init>
   20b80:	5b                   	pop    %rbx
   20b81:	e9 da 06 00 00       	jmpq   21260 <__newlib_thread_init>
   20b86:	66 66 2e 0f 1f 84 00 	data32 nopw %cs:0x0(%rax,%rax,1)
   20b8d:	00 00 00 00 
   20b91:	66 66 66 66 66 66 2e 	data32 data32 data32 data32 data32 nopw %cs:0x0(%rax,%rax,1)
   20b98:	0f 1f 84 00 00 00 00 
   20b9f:	00 
   20ba0:	bf 20 9f 03 00       	mov    $0x39f20,%edi
   20ba5:	45 31 c9             	xor    %r9d,%r9d
   20ba8:	41 83 c8 ff          	or     $0xffffffff,%r8d
   20bac:	b9 22 00 00 00       	mov    $0x22,%ecx
   20bb1:	ba 03 00 00 00       	mov    $0x3,%edx
   20bb6:	89 c6                	mov    %eax,%esi
   20bb8:	0f 1f 00             	nopl   (%rax)
   20bbb:	e8 c0 04 00 00       	callq  21080 <mmap>
   20bc0:	89 c7                	mov    %eax,%edi
   20bc2:	e9 79 ff ff ff       	jmpq   20b40 <__pthread_initialize_minimal+0x60>
   20bc7:	90                   	nop
   20bc8:	90                   	nop
   20bc9:	90                   	nop
   20bca:	90                   	nop
   20bcb:	90                   	nop
   20bcc:	90                   	nop
   20bcd:	90                   	nop
   20bce:	90                   	nop
   20bcf:	90                   	nop
   20bd0:	90                   	nop
   20bd1:	90                   	nop
   20bd2:	90                   	nop
   20bd3:	90                   	nop
   20bd4:	90                   	nop
   20bd5:	90                   	nop
   20bd6:	90                   	nop
   20bd7:	90                   	nop
   20bd8:	90                   	nop
   20bd9:	90                   	nop
   20bda:	90                   	nop
   20bdb:	90                   	nop
   20bdc:	90                   	nop
   20bdd:	90                   	nop
   20bde:	90                   	nop
   20bdf:	90                   	nop

0000000000020be0 <get_tls_info>:
   20be0:	8b 05 f6 2a 01 10    	mov    0x10012af6(%rip),%eax        # 100336dc <cached_tls_info+0xc>
   20be6:	85 c0                	test   %eax,%eax
   20be8:	75 76                	jne    20c60 <get_tls_info+0x80>
   20bea:	b8 00 00 02 10       	mov    $0x10020000,%eax
   20bef:	85 c0                	test   %eax,%eax
   20bf1:	0f 85 89 00 00 00    	jne    20c80 <get_tls_info+0xa0>
   20bf7:	66 0f 1f 84 00 00 00 	nopw   0x0(%rax,%rax,1)
   20bfe:	00 00 
   20c00:	85 c0                	test   %eax,%eax
   20c02:	0f 85 78 01 00 00    	jne    20d80 <get_tls_info+0x1a0>
   20c08:	66 0f 1f 84 00 00 00 	nopw   0x0(%rax,%rax,1)
   20c0f:	00 00 
   20c11:	66 66 66 66 66 66 2e 	data32 data32 data32 data32 data32 nopw %cs:0x0(%rax,%rax,1)
   20c18:	0f 1f 84 00 00 00 00 
   20c1f:	00 
   20c20:	8b 05 da f3 fd ff    	mov    -0x20c26(%rip),%eax        # 0 <_impure_ptr>
   20c26:	c7 05 a0 2a 01 10 00 	movl   $0x0,0x10012aa0(%rip)        # 100336d0 <cached_tls_info>
   20c2d:	00 00 00 
   20c30:	89 05 a6 2a 01 10    	mov    %eax,0x10012aa6(%rip)        # 100336dc <cached_tls_info+0xc>
   20c36:	b8 00 00 00 00       	mov    $0x0,%eax
   20c3b:	2d 00 00 00 00       	sub    $0x0,%eax
   20c40:	89 05 8e 2a 01 10    	mov    %eax,0x10012a8e(%rip)        # 100336d4 <cached_tls_info+0x4>
   20c46:	b8 00 00 00 00       	mov    $0x0,%eax
   20c4b:	2d 00 00 00 00       	sub    $0x0,%eax
   20c50:	89 05 82 2a 01 10    	mov    %eax,0x10012a82(%rip)        # 100336d8 <cached_tls_info+0x8>
   20c56:	66 2e 0f 1f 84 00 00 	nopw   %cs:0x0(%rax,%rax,1)
   20c5d:	00 00 00 
   20c60:	41 5b                	pop    %r11
   20c62:	b8 d0 36 03 10       	mov    $0x100336d0,%eax
   20c67:	41 83 e3 e0          	and    $0xffffffe0,%r11d
   20c6b:	4d 01 fb             	add    %r15,%r11
   20c6e:	41 ff e3             	jmpq   *%r11
   20c71:	66 66 66 66 66 66 2e 	data32 data32 data32 data32 data32 nopw %cs:0x0(%rax,%rax,1)
   20c78:	0f 1f 84 00 00 00 00 
   20c7f:	00 
   20c80:	80 3d 7d f3 ff 0f 01 	cmpb   $0x1,0xffff37d(%rip)        # 10020004 <__ehdr_start+0x4>
   20c87:	0f 85 73 ff ff ff    	jne    20c00 <get_tls_info+0x20>
   20c8d:	66 83 3d 95 f3 ff 0f 	cmpw   $0x20,0xffff395(%rip)        # 1002002a <__ehdr_start+0x2a>
   20c94:	20 
   20c95:	0f 85 65 ff ff ff    	jne    20c00 <get_tls_info+0x20>
   20c9b:	0f 1f 44 00 00       	nopl   0x0(%rax,%rax,1)
   20ca0:	8b 35 76 f3 ff 0f    	mov    0xffff376(%rip),%esi        # 1002001c <__ehdr_start+0x1c>
   20ca6:	0f b7 3d 7f f3 ff 0f 	movzwl 0xffff37f(%rip),%edi        # 1002002c <__ehdr_start+0x2c>
   20cad:	31 c9                	xor    %ecx,%ecx
   20caf:	01 c6                	add    %eax,%esi
   20cb1:	eb 2d                	jmp    20ce0 <get_tls_info+0x100>
   20cb3:	66 66 66 66 2e 0f 1f 	data32 data32 data32 nopw %cs:0x0(%rax,%rax,1)
   20cba:	84 00 00 00 00 00 
   20cc0:	83 c1 01             	add    $0x1,%ecx
   20cc3:	66 66 66 66 66 2e 0f 	data32 data32 data32 data32 nopw %cs:0x0(%rax,%rax,1)
   20cca:	1f 84 00 00 00 00 00 
   20cd1:	66 66 66 66 66 66 2e 	data32 data32 data32 data32 data32 nopw %cs:0x0(%rax,%rax,1)
   20cd8:	0f 1f 84 00 00 00 00 
   20cdf:	00 
   20ce0:	39 f9                	cmp    %edi,%ecx
   20ce2:	0f 8d 18 ff ff ff    	jge    20c00 <get_tls_info+0x20>
   20ce8:	89 f2                	mov    %esi,%edx
   20cea:	83 c6 20             	add    $0x20,%esi
   20ced:	89 d2                	mov    %edx,%edx
   20cef:	41 83 3c 17 07       	cmpl   $0x7,(%r15,%rdx,1)
   20cf4:	75 ca                	jne    20cc0 <get_tls_info+0xe0>
   20cf6:	89 d2                	mov    %edx,%edx
   20cf8:	41 8b 44 17 1c       	mov    0x1c(%r15,%rdx,1),%eax
   20cfd:	0f 1f 00             	nopl   (%rax)
   20d00:	66 83 3d 08 f3 ff 0f 	cmpw   $0x3,0xffff308(%rip)        # 10020010 <__ehdr_start+0x10>
   20d07:	03 
   20d08:	89 05 ce 29 01 10    	mov    %eax,0x100129ce(%rip)        # 100336dc <cached_tls_info+0xc>
   20d0e:	89 d2                	mov    %edx,%edx
   20d10:	41 8b 44 17 08       	mov    0x8(%r15,%rdx,1),%eax
   20d15:	89 05 b5 29 01 10    	mov    %eax,0x100129b5(%rip)        # 100336d0 <cached_tls_info>
   20d1b:	0f 1f 44 00 00       	nopl   0x0(%rax,%rax,1)
   20d20:	75 1e                	jne    20d40 <get_tls_info+0x160>
   20d22:	05 00 00 02 10       	add    $0x10020000,%eax
   20d27:	89 05 a3 29 01 10    	mov    %eax,0x100129a3(%rip)        # 100336d0 <cached_tls_info>
   20d2d:	0f 1f 40 00          	nopl   0x0(%rax)
   20d31:	66 66 66 66 66 66 2e 	data32 data32 data32 data32 data32 nopw %cs:0x0(%rax,%rax,1)
   20d38:	0f 1f 84 00 00 00 00 
   20d3f:	00 
   20d40:	89 d2                	mov    %edx,%edx
   20d42:	41 8b 4c 17 10       	mov    0x10(%r15,%rdx,1),%ecx
   20d47:	89 0d 87 29 01 10    	mov    %ecx,0x10012987(%rip)        # 100336d4 <cached_tls_info+0x4>
   20d4d:	89 d2                	mov    %edx,%edx
   20d4f:	41 8b 44 17 14       	mov    0x14(%r15,%rdx,1),%eax
   20d54:	29 c8                	sub    %ecx,%eax
   20d56:	89 05 7c 29 01 10    	mov    %eax,0x1001297c(%rip)        # 100336d8 <cached_tls_info+0x8>
   20d5c:	0f 1f 40 00          	nopl   0x0(%rax)
   20d60:	e9 fb fe ff ff       	jmpq   20c60 <get_tls_info+0x80>
   20d65:	66 66 66 2e 0f 1f 84 	data32 data32 nopw %cs:0x0(%rax,%rax,1)
   20d6c:	00 00 00 00 00 
   20d71:	66 66 66 66 66 66 2e 	data32 data32 data32 data32 data32 nopw %cs:0x0(%rax,%rax,1)
   20d78:	0f 1f 84 00 00 00 00 
   20d7f:	00 
   20d80:	80 3d 7d f2 ff 0f 02 	cmpb   $0x2,0xffff27d(%rip)        # 10020004 <__ehdr_start+0x4>
   20d87:	0f 85 93 fe ff ff    	jne    20c20 <get_tls_info+0x40>
   20d8d:	66 83 3d a1 f2 ff 0f 	cmpw   $0x38,0xffff2a1(%rip)        # 10020036 <__ehdr_start+0x36>
   20d94:	38 
   20d95:	0f 85 85 fe ff ff    	jne    20c20 <get_tls_info+0x40>
   20d9b:	0f 1f 44 00 00       	nopl   0x0(%rax,%rax,1)
   20da0:	48 8b 0d 79 f2 ff 0f 	mov    0xffff279(%rip),%rcx        # 10020020 <__ehdr_start+0x20>
   20da7:	0f b7 35 8a f2 ff 0f 	movzwl 0xffff28a(%rip),%esi        # 10020038 <__ehdr_start+0x38>
   20dae:	31 d2                	xor    %edx,%edx
   20db0:	81 c1 00 00 02 10    	add    $0x10020000,%ecx
   20db6:	eb 28                	jmp    20de0 <get_tls_info+0x200>
   20db8:	0f 1f 84 00 00 00 00 	nopl   0x0(%rax,%rax,1)
   20dbf:	00 
   20dc0:	83 c2 01             	add    $0x1,%edx
   20dc3:	66 66 66 66 66 2e 0f 	data32 data32 data32 data32 nopw %cs:0x0(%rax,%rax,1)
   20dca:	1f 84 00 00 00 00 00 
   20dd1:	66 66 66 66 66 66 2e 	data32 data32 data32 data32 data32 nopw %cs:0x0(%rax,%rax,1)
   20dd8:	0f 1f 84 00 00 00 00 
   20ddf:	00 
   20de0:	39 f2                	cmp    %esi,%edx
   20de2:	0f 8d 38 fe ff ff    	jge    20c20 <get_tls_info+0x40>
   20de8:	89 c8                	mov    %ecx,%eax
   20dea:	83 c1 38             	add    $0x38,%ecx
   20ded:	89 c0                	mov    %eax,%eax
   20def:	41 83 3c 07 07       	cmpl   $0x7,(%r15,%rax,1)
   20df4:	75 ca                	jne    20dc0 <get_tls_info+0x1e0>
   20df6:	89 c0                	mov    %eax,%eax
   20df8:	49 8b 54 07 30       	mov    0x30(%r15,%rax,1),%rdx
   20dfd:	0f 1f 00             	nopl   (%rax)
   20e00:	66 83 3d 08 f2 ff 0f 	cmpw   $0x3,0xffff208(%rip)        # 10020010 <__ehdr_start+0x10>
   20e07:	03 
   20e08:	89 15 ce 28 01 10    	mov    %edx,0x100128ce(%rip)        # 100336dc <cached_tls_info+0xc>
   20e0e:	89 c0                	mov    %eax,%eax
   20e10:	41 8b 54 07 10       	mov    0x10(%r15,%rax,1),%edx
   20e15:	89 15 b5 28 01 10    	mov    %edx,0x100128b5(%rip)        # 100336d0 <cached_tls_info>
   20e1b:	0f 1f 44 00 00       	nopl   0x0(%rax,%rax,1)
   20e20:	75 1e                	jne    20e40 <get_tls_info+0x260>
   20e22:	81 c2 00 00 02 10    	add    $0x10020000,%edx
   20e28:	89 15 a2 28 01 10    	mov    %edx,0x100128a2(%rip)        # 100336d0 <cached_tls_info>
   20e2e:	0f 1f 00             	nopl   (%rax)
   20e31:	66 66 66 66 66 66 2e 	data32 data32 data32 data32 data32 nopw %cs:0x0(%rax,%rax,1)
   20e38:	0f 1f 84 00 00 00 00 
   20e3f:	00 
   20e40:	89 c0                	mov    %eax,%eax
   20e42:	49 8b 54 07 20       	mov    0x20(%r15,%rax,1),%rdx
   20e47:	89 c0                	mov    %eax,%eax
   20e49:	49 8b 44 07 28       	mov    0x28(%r15,%rax,1),%rax
   20e4e:	29 d0                	sub    %edx,%eax
   20e50:	89 15 7e 28 01 10    	mov    %edx,0x1001287e(%rip)        # 100336d4 <cached_tls_info+0x4>
   20e56:	89 05 7c 28 01 10    	mov    %eax,0x1001287c(%rip)        # 100336d8 <cached_tls_info+0x8>
   20e5c:	0f 1f 40 00          	nopl   0x0(%rax)
   20e60:	e9 fb fd ff ff       	jmpq   20c60 <get_tls_info+0x80>
   20e65:	66 66 66 2e 0f 1f 84 	data32 data32 nopw %cs:0x0(%rax,%rax,1)
   20e6c:	00 00 00 00 00 
   20e71:	66 66 66 66 66 66 2e 	data32 data32 data32 data32 data32 nopw %cs:0x0(%rax,%rax,1)
   20e78:	0f 1f 84 00 00 00 00 
   20e7f:	00 

0000000000020e80 <__nacl_tls_combined_size>:
   20e80:	53                   	push   %rbx
   20e81:	89 fb                	mov    %edi,%ebx
   20e83:	66 0f 1f 84 00 00 00 	nopw   0x0(%rax,%rax,1)
   20e8a:	00 00 
   20e8c:	66 66 66 66 66 66 2e 	data32 data32 data32 data32 data32 nopw %cs:0x0(%rax,%rax,1)
   20e93:	0f 1f 84 00 00 00 00 
   20e9a:	00 
   20e9b:	e8 40 fd ff ff       	callq  20be0 <get_tls_info>
   20ea0:	89 c0                	mov    %eax,%eax
   20ea2:	89 c0                	mov    %eax,%eax
   20ea4:	41 8b 54 07 08       	mov    0x8(%r15,%rax,1),%edx
   20ea9:	89 c0                	mov    %eax,%eax
   20eab:	41 8b 4c 07 0c       	mov    0xc(%r15,%rax,1),%ecx
   20eb0:	89 c0                	mov    %eax,%eax
   20eb2:	41 03 54 07 04       	add    0x4(%r15,%rax,1),%edx
   20eb7:	8d 71 ff             	lea    -0x1(%rcx),%esi
   20eba:	89 d7                	mov    %edx,%edi
   20ebc:	8d 14 16             	lea    (%rsi,%rdx,1),%edx
   20ebf:	90                   	nop
   20ec0:	f7 df                	neg    %edi
   20ec2:	85 ff                	test   %edi,%edi
   20ec4:	8d 04 1a             	lea    (%rdx,%rbx,1),%eax
   20ec7:	7e 17                	jle    20ee0 <__nacl_tls_combined_size+0x60>
   20ec9:	8d 14 37             	lea    (%rdi,%rsi,1),%edx
   20ecc:	f7 d9                	neg    %ecx
   20ece:	21 ca                	and    %ecx,%edx
   20ed0:	01 d0                	add    %edx,%eax
   20ed2:	66 66 66 66 66 2e 0f 	data32 data32 data32 data32 nopw %cs:0x0(%rax,%rax,1)
   20ed9:	1f 84 00 00 00 00 00 
   20ee0:	5b                   	pop    %rbx
   20ee1:	41 5b                	pop    %r11
   20ee3:	41 83 e3 e0          	and    $0xffffffe0,%r11d
   20ee7:	4d 01 fb             	add    %r15,%r11
   20eea:	41 ff e3             	jmpq   *%r11
   20eed:	0f 1f 40 00          	nopl   0x0(%rax)
   20ef1:	66 66 66 66 66 66 2e 	data32 data32 data32 data32 data32 nopw %cs:0x0(%rax,%rax,1)
   20ef8:	0f 1f 84 00 00 00 00 
   20eff:	00 

0000000000020f00 <__nacl_tls_initialize_memory>:
   20f00:	48 89 5c 24 e0       	mov    %rbx,-0x20(%rsp)
   20f05:	4c 89 64 24 e8       	mov    %r12,-0x18(%rsp)
   20f0a:	41 89 f4             	mov    %esi,%r12d
   20f0d:	4c 89 6c 24 f0       	mov    %r13,-0x10(%rsp)
   20f12:	4c 89 74 24 f8       	mov    %r14,-0x8(%rsp)
   20f17:	83 ec 38             	sub    $0x38,%esp
   20f1a:	4c 01 fc             	add    %r15,%rsp
   20f1d:	41 89 fe             	mov    %edi,%r14d
   20f20:	66 66 66 2e 0f 1f 84 	data32 data32 nopw %cs:0x0(%rax,%rax,1)
   20f27:	00 00 00 00 00 
   20f2c:	66 66 66 66 66 66 2e 	data32 data32 data32 data32 data32 nopw %cs:0x0(%rax,%rax,1)
   20f33:	0f 1f 84 00 00 00 00 
   20f3a:	00 
   20f3b:	e8 a0 fc ff ff       	callq  20be0 <get_tls_info>
   20f40:	89 c3                	mov    %eax,%ebx
   20f42:	44 89 e7             	mov    %r12d,%edi
   20f45:	89 db                	mov    %ebx,%ebx
   20f47:	41 8b 4c 1f 08       	mov    0x8(%r15,%rbx,1),%ecx
   20f4c:	89 db                	mov    %ebx,%ebx
   20f4e:	45 8b 6c 1f 04       	mov    0x4(%r15,%rbx,1),%r13d
   20f53:	89 4c 24 08          	mov    %ecx,0x8(%rsp)
   20f57:	0f 1f 40 00          	nopl   0x0(%rax)
   20f5b:	e8 20 ff ff ff       	callq  20e80 <__nacl_tls_combined_size>
   20f60:	89 db                	mov    %ebx,%ebx
   20f62:	41 8b 7c 1f 0c       	mov    0xc(%r15,%rbx,1),%edi
   20f67:	89 db                	mov    %ebx,%ebx
   20f69:	41 8b 54 1f 04       	mov    0x4(%r15,%rbx,1),%edx
   20f6e:	89 db                	mov    %ebx,%ebx
   20f70:	45 8b 4c 1f 08       	mov    0x8(%r15,%rbx,1),%r9d
   20f75:	8b 4c 24 08          	mov    0x8(%rsp),%ecx
   20f79:	44 8d 67 ff          	lea    -0x1(%rdi),%r12d
   20f7d:	89 fe                	mov    %edi,%esi
   20f7f:	90                   	nop
   20f80:	41 01 d1             	add    %edx,%r9d
   20f83:	f7 de                	neg    %esi
   20f85:	46 8d 6c 29 ff       	lea    -0x1(%rcx,%r13,1),%r13d
   20f8a:	47 8d 04 0c          	lea    (%r12,%r9,1),%r8d
   20f8e:	45 01 f4             	add    %r14d,%r12d
   20f91:	46 8d 34 30          	lea    (%rax,%r14,1),%r14d
   20f95:	41 21 f4             	and    %esi,%r12d
   20f98:	41 01 fd             	add    %edi,%r13d
   20f9b:	41 21 f0             	and    %esi,%r8d
   20f9e:	66 90                	xchg   %ax,%ax
   20fa0:	41 21 f5             	and    %esi,%r13d
   20fa3:	45 01 c4             	add    %r8d,%r12d
   20fa6:	44 89 e1             	mov    %r12d,%ecx
   20fa9:	44 29 e9             	sub    %r13d,%ecx
   20fac:	41 01 c9             	add    %ecx,%r9d
   20faf:	49 89 cd             	mov    %rcx,%r13
   20fb2:	45 39 ce             	cmp    %r9d,%r14d
   20fb5:	0f 82 85 00 00 00    	jb     21040 <__nacl_tls_initialize_memory+0x140>
   20fbb:	0f 1f 44 00 00       	nopl   0x0(%rax,%rax,1)
   20fc0:	89 db                	mov    %ebx,%ebx
   20fc2:	41 8b 34 1f          	mov    (%r15,%rbx,1),%esi
   20fc6:	89 cf                	mov    %ecx,%edi
   20fc8:	0f 1f 40 00          	nopl   0x0(%rax)
   20fcc:	66 66 66 66 66 66 2e 	data32 data32 data32 data32 data32 nopw %cs:0x0(%rax,%rax,1)
   20fd3:	0f 1f 84 00 00 00 00 
   20fda:	00 
   20fdb:	e8 20 04 00 00       	callq  21400 <memcpy>
   20fe0:	89 db                	mov    %ebx,%ebx
   20fe2:	41 8b 7c 1f 04       	mov    0x4(%r15,%rbx,1),%edi
   20fe7:	89 db                	mov    %ebx,%ebx
   20fe9:	41 8b 54 1f 08       	mov    0x8(%r15,%rbx,1),%edx
   20fee:	31 f6                	xor    %esi,%esi
   20ff0:	44 01 ef             	add    %r13d,%edi
   20ff3:	0f 1f 84 00 00 00 00 	nopl   0x0(%rax,%rax,1)
   20ffa:	00 
   20ffb:	e8 00 06 00 00       	callq  21600 <memset>
   21000:	45 89 e4             	mov    %r12d,%r12d
   21003:	47 89 24 27          	mov    %r12d,(%r15,%r12,1)
   21007:	44 89 e0             	mov    %r12d,%eax
   2100a:	48 8b 5c 24 18       	mov    0x18(%rsp),%rbx
   2100f:	4c 8b 64 24 20       	mov    0x20(%rsp),%r12
   21014:	4c 8b 6c 24 28       	mov    0x28(%rsp),%r13
   21019:	4c 8b 74 24 30       	mov    0x30(%rsp),%r14
   2101e:	66 90                	xchg   %ax,%ax
   21020:	83 c4 38             	add    $0x38,%esp
   21023:	4c 01 fc             	add    %r15,%rsp
   21026:	41 5b                	pop    %r11
   21028:	41 83 e3 e0          	and    $0xffffffe0,%r11d
   2102c:	4d 01 fb             	add    %r15,%r11
   2102f:	41 ff e3             	jmpq   *%r11
   21032:	66 66 66 66 66 2e 0f 	data32 data32 data32 data32 nopw %cs:0x0(%rax,%rax,1)
   21039:	1f 84 00 00 00 00 00 
   21040:	0f 0b                	ud2    
   21042:	90                   	nop
   21043:	90                   	nop
   21044:	90                   	nop
   21045:	90                   	nop
   21046:	90                   	nop
   21047:	90                   	nop
   21048:	90                   	nop
   21049:	90                   	nop
   2104a:	90                   	nop
   2104b:	90                   	nop
   2104c:	90                   	nop
   2104d:	90                   	nop
   2104e:	90                   	nop
   2104f:	90                   	nop
   21050:	90                   	nop
   21051:	90                   	nop
   21052:	90                   	nop
   21053:	90                   	nop
   21054:	90                   	nop
   21055:	90                   	nop
   21056:	90                   	nop
   21057:	90                   	nop
   21058:	90                   	nop
   21059:	90                   	nop
   2105a:	90                   	nop
   2105b:	90                   	nop
   2105c:	90                   	nop
   2105d:	90                   	nop
   2105e:	90                   	nop
   2105f:	90                   	nop

0000000000021060 <nacl_tls_init>:
   21060:	8b 05 52 2c 01 10    	mov    0x10012c52(%rip),%eax        # 10033cb8 <__libnacl_irt_tls>
   21066:	89 ff                	mov    %edi,%edi
   21068:	83 e0 e0             	and    $0xffffffe0,%eax
   2106b:	4c 01 f8             	add    %r15,%rax
   2106e:	ff e0                	jmpq   *%rax
   21070:	90                   	nop
   21071:	90                   	nop
   21072:	90                   	nop
   21073:	90                   	nop
   21074:	90                   	nop
   21075:	90                   	nop
   21076:	90                   	nop
   21077:	90                   	nop
   21078:	90                   	nop
   21079:	90                   	nop
   2107a:	90                   	nop
   2107b:	90                   	nop
   2107c:	90                   	nop
   2107d:	90                   	nop
   2107e:	90                   	nop
   2107f:	90                   	nop

0000000000021080 <mmap>:
   21080:	53                   	push   %rbx
   21081:	83 ec 10             	sub    $0x10,%esp
   21084:	4c 01 fc             	add    %r15,%rsp
   21087:	8b 05 bb 2b 01 10    	mov    0x10012bbb(%rip),%eax        # 10033c48 <__libnacl_irt_memory>
   2108d:	89 7c 24 0c          	mov    %edi,0xc(%rsp)
   21091:	8d 7c 24 0c          	lea    0xc(%rsp),%edi
   21095:	0f 1f 00             	nopl   (%rax)
   21098:	83 e0 e0             	and    $0xffffffe0,%eax
   2109b:	4c 01 f8             	add    %r15,%rax
   2109e:	ff d0                	callq  *%rax
   210a0:	85 c0                	test   %eax,%eax
   210a2:	89 c3                	mov    %eax,%ebx
   210a4:	75 1a                	jne    210c0 <mmap+0x40>
   210a6:	8b 44 24 0c          	mov    0xc(%rsp),%eax
   210aa:	83 c4 10             	add    $0x10,%esp
   210ad:	4c 01 fc             	add    %r15,%rsp
   210b0:	5b                   	pop    %rbx
   210b1:	41 5b                	pop    %r11
   210b3:	41 83 e3 e0          	and    $0xffffffe0,%r11d
   210b7:	4d 01 fb             	add    %r15,%r11
   210ba:	41 ff e3             	jmpq   *%r11
   210bd:	0f 1f 00             	nopl   (%rax)
   210c0:	66 66 66 2e 0f 1f 84 	data32 data32 nopw %cs:0x0(%rax,%rax,1)
   210c7:	00 00 00 00 00 
   210cc:	66 66 66 66 66 66 2e 	data32 data32 data32 data32 data32 nopw %cs:0x0(%rax,%rax,1)
   210d3:	0f 1f 84 00 00 00 00 
   210da:	00 
   210db:	e8 40 00 00 00       	callq  21120 <__errno>
   210e0:	89 c0                	mov    %eax,%eax
   210e2:	89 c0                	mov    %eax,%eax
   210e4:	41 89 1c 07          	mov    %ebx,(%r15,%rax,1)
   210e8:	83 c4 10             	add    $0x10,%esp
   210eb:	4c 01 fc             	add    %r15,%rsp
   210ee:	b8 ff ff ff ff       	mov    $0xffffffff,%eax
   210f3:	5b                   	pop    %rbx
   210f4:	41 5b                	pop    %r11
   210f6:	41 83 e3 e0          	and    $0xffffffe0,%r11d
   210fa:	4d 01 fb             	add    %r15,%r11
   210fd:	41 ff e3             	jmpq   *%r11

0000000000021100 <atexit>:
   21100:	89 fe                	mov    %edi,%esi
   21102:	31 c9                	xor    %ecx,%ecx
   21104:	31 d2                	xor    %edx,%edx
   21106:	31 ff                	xor    %edi,%edi
   21108:	e9 f3 70 00 00       	jmpq   28200 <__register_exitproc>
   2110d:	90                   	nop
   2110e:	90                   	nop
   2110f:	90                   	nop
   21110:	90                   	nop
   21111:	90                   	nop
   21112:	90                   	nop
   21113:	90                   	nop
   21114:	90                   	nop
   21115:	90                   	nop
   21116:	90                   	nop
   21117:	90                   	nop
   21118:	90                   	nop
   21119:	90                   	nop
   2111a:	90                   	nop
   2111b:	90                   	nop
   2111c:	90                   	nop
   2111d:	90                   	nop
   2111e:	90                   	nop
   2111f:	90                   	nop

0000000000021120 <__errno>:
   21120:	66 66 66 2e 0f 1f 84 	data32 data32 nopw %cs:0x0(%rax,%rax,1)
   21127:	00 00 00 00 00 
   2112c:	66 66 66 66 66 66 2e 	data32 data32 data32 data32 data32 nopw %cs:0x0(%rax,%rax,1)
   21133:	0f 1f 84 00 00 00 00 
   2113a:	00 
   2113b:	e8 40 f3 ff ff       	callq  20480 <__nacl_read_tp>
   21140:	41 5b                	pop    %r11
   21142:	48 8d 80 88 fb ff ff 	lea    -0x478(%rax),%rax
   21149:	89 c0                	mov    %eax,%eax
   2114b:	41 8b 04 07          	mov    (%r15,%rax,1),%eax
   2114f:	41 83 e3 e0          	and    $0xffffffe0,%r11d
   21153:	4d 01 fb             	add    %r15,%r11
   21156:	41 ff e3             	jmpq   *%r11
   21159:	90                   	nop
   2115a:	90                   	nop
   2115b:	90                   	nop
   2115c:	90                   	nop
   2115d:	90                   	nop
   2115e:	90                   	nop
   2115f:	90                   	nop

0000000000021160 <exit>:
   21160:	53                   	push   %rbx
   21161:	31 f6                	xor    %esi,%esi
   21163:	89 fb                	mov    %edi,%ebx
   21165:	0f 1f 80 00 00 00 00 	nopl   0x0(%rax)
   2116c:	66 66 66 66 66 66 2e 	data32 data32 data32 data32 data32 nopw %cs:0x0(%rax,%rax,1)
   21173:	0f 1f 84 00 00 00 00 
   2117a:	00 
   2117b:	e8 60 73 00 00       	callq  284e0 <__call_exitprocs>
   21180:	8b 3d 3a f1 ff 0f    	mov    0xffff13a(%rip),%edi        # 100202c0 <_global_impure_ptr>
   21186:	89 ff                	mov    %edi,%edi
   21188:	41 8b 44 3f 3c       	mov    0x3c(%r15,%rdi,1),%eax
   2118d:	48 85 c0             	test   %rax,%rax
   21190:	74 0e                	je     211a0 <exit+0x40>
   21192:	66 0f 1f 44 00 00    	nopw   0x0(%rax,%rax,1)
   21198:	83 e0 e0             	and    $0xffffffe0,%eax
   2119b:	4c 01 f8             	add    %r15,%rax
   2119e:	ff d0                	callq  *%rax
   211a0:	89 df                	mov    %ebx,%edi
   211a2:	66 2e 0f 1f 84 00 00 	nopw   %cs:0x0(%rax,%rax,1)
   211a9:	00 00 00 
   211ac:	66 66 66 66 66 66 2e 	data32 data32 data32 data32 data32 nopw %cs:0x0(%rax,%rax,1)
   211b3:	0f 1f 84 00 00 00 00 
   211ba:	00 
   211bb:	e8 00 f1 ff ff       	callq  202c0 <_exit>

00000000000211c0 <__libc_fini_array>:
   211c0:	41 54                	push   %r12
   211c2:	53                   	push   %rbx
   211c3:	bb 50 2f 03 10       	mov    $0x10032f50,%ebx
   211c8:	81 eb 50 2f 03 10    	sub    $0x10032f50,%ebx
   211ce:	c1 fb 02             	sar    $0x2,%ebx
   211d1:	83 ec 08             	sub    $0x8,%esp
   211d4:	4c 01 fc             	add    %r15,%rsp
   211d7:	85 db                	test   %ebx,%ebx
   211d9:	74 65                	je     21240 <__libc_fini_array+0x80>
   211db:	0f 1f 44 00 00       	nopl   0x0(%rax,%rax,1)
   211e0:	44 8d 24 9d 4c 2f 03 	lea    0x10032f4c(,%rbx,4),%r12d
   211e7:	10 
   211e8:	66 0f 1f 84 00 00 00 	nopw   0x0(%rax,%rax,1)
   211ef:	00 00 
   211f1:	66 66 66 66 66 66 2e 	data32 data32 data32 data32 data32 nopw %cs:0x0(%rax,%rax,1)
   211f8:	0f 1f 84 00 00 00 00 
   211ff:	00 
   21200:	44 89 e0             	mov    %r12d,%eax
   21203:	83 eb 01             	sub    $0x1,%ebx
   21206:	41 83 ec 04          	sub    $0x4,%r12d
   2120a:	89 c0                	mov    %eax,%eax
   2120c:	41 8b 04 07          	mov    (%r15,%rax,1),%eax
   21210:	0f 1f 84 00 00 00 00 	nopl   0x0(%rax,%rax,1)
   21217:	00 
   21218:	83 e0 e0             	and    $0xffffffe0,%eax
   2121b:	4c 01 f8             	add    %r15,%rax
   2121e:	ff d0                	callq  *%rax
   21220:	85 db                	test   %ebx,%ebx
   21222:	75 dc                	jne    21200 <__libc_fini_array+0x40>
   21224:	66 66 66 66 2e 0f 1f 	data32 data32 data32 nopw %cs:0x0(%rax,%rax,1)
   2122b:	84 00 00 00 00 00 
   21231:	66 66 66 66 66 66 2e 	data32 data32 data32 data32 data32 nopw %cs:0x0(%rax,%rax,1)
   21238:	0f 1f 84 00 00 00 00 
   2123f:	00 
   21240:	83 c4 08             	add    $0x8,%esp
   21243:	4c 01 fc             	add    %r15,%rsp
   21246:	5b                   	pop    %rbx
   21247:	41 5c                	pop    %r12
   21249:	e9 72 cd 01 00       	jmpq   3dfc0 <_fini>
   2124e:	90                   	nop
   2124f:	90                   	nop
   21250:	90                   	nop
   21251:	90                   	nop
   21252:	90                   	nop
   21253:	90                   	nop
   21254:	90                   	nop
   21255:	90                   	nop
   21256:	90                   	nop
   21257:	90                   	nop
   21258:	90                   	nop
   21259:	90                   	nop
   2125a:	90                   	nop
   2125b:	90                   	nop
   2125c:	90                   	nop
   2125d:	90                   	nop
   2125e:	90                   	nop
   2125f:	90                   	nop

0000000000021260 <__newlib_thread_init>:
   21260:	53                   	push   %rbx
   21261:	66 66 2e 0f 1f 84 00 	data32 nopw %cs:0x0(%rax,%rax,1)
   21268:	00 00 00 00 
   2126c:	66 66 66 66 66 66 2e 	data32 data32 data32 data32 data32 nopw %cs:0x0(%rax,%rax,1)
   21273:	0f 1f 84 00 00 00 00 
   2127a:	00 
   2127b:	e8 00 f2 ff ff       	callq  20480 <__nacl_read_tp>
   21280:	48 89 c3             	mov    %rax,%rbx
   21283:	66 0f 1f 84 00 00 00 	nopw   0x0(%rax,%rax,1)
   2128a:	00 00 
   2128c:	66 66 66 66 66 66 2e 	data32 data32 data32 data32 data32 nopw %cs:0x0(%rax,%rax,1)
   21293:	0f 1f 84 00 00 00 00 
   2129a:	00 
   2129b:	e8 e0 f1 ff ff       	callq  20480 <__nacl_read_tp>
   212a0:	48 05 90 fb ff ff    	add    $0xfffffffffffffb90,%rax
   212a6:	89 db                	mov    %ebx,%ebx
   212a8:	41 89 84 1f 88 fb ff 	mov    %eax,-0x478(%r15,%rbx,1)
   212af:	ff 
   212b0:	5b                   	pop    %rbx
   212b1:	41 5b                	pop    %r11
   212b3:	41 83 e3 e0          	and    $0xffffffe0,%r11d
   212b7:	4d 01 fb             	add    %r15,%r11
   212ba:	41 ff e3             	jmpq   *%r11
   212bd:	0f 1f 00             	nopl   (%rax)

00000000000212c0 <__newlib_thread_exit>:
   212c0:	41 5b                	pop    %r11
   212c2:	41 83 e3 e0          	and    $0xffffffe0,%r11d
   212c6:	4d 01 fb             	add    %r15,%r11
   212c9:	41 ff e3             	jmpq   *%r11
   212cc:	90                   	nop
   212cd:	90                   	nop
   212ce:	90                   	nop
   212cf:	90                   	nop
   212d0:	90                   	nop
   212d1:	90                   	nop
   212d2:	90                   	nop
   212d3:	90                   	nop
   212d4:	90                   	nop
   212d5:	90                   	nop
   212d6:	90                   	nop
   212d7:	90                   	nop
   212d8:	90                   	nop
   212d9:	90                   	nop
   212da:	90                   	nop
   212db:	90                   	nop
   212dc:	90                   	nop
   212dd:	90                   	nop
   212de:	90                   	nop
   212df:	90                   	nop

00000000000212e0 <__libc_init_array>:
   212e0:	41 54                	push   %r12
   212e2:	41 bc 50 2f 03 10    	mov    $0x10032f50,%r12d
   212e8:	41 81 ec 50 2f 03 10 	sub    $0x10032f50,%r12d
   212ef:	53                   	push   %rbx
   212f0:	41 c1 fc 02          	sar    $0x2,%r12d
   212f4:	83 ec 08             	sub    $0x8,%esp
   212f7:	4c 01 fc             	add    %r15,%rsp
   212fa:	45 85 e4             	test   %r12d,%r12d
   212fd:	0f 1f 00             	nopl   (%rax)
   21300:	74 5e                	je     21360 <__libc_init_array+0x80>
   21302:	31 db                	xor    %ebx,%ebx
   21304:	66 66 66 66 2e 0f 1f 	data32 data32 data32 nopw %cs:0x0(%rax,%rax,1)
   2130b:	84 00 00 00 00 00 
   21311:	66 66 66 66 66 66 2e 	data32 data32 data32 data32 data32 nopw %cs:0x0(%rax,%rax,1)
   21318:	0f 1f 84 00 00 00 00 
   2131f:	00 
   21320:	89 d8                	mov    %ebx,%eax
   21322:	83 c3 01             	add    $0x1,%ebx
   21325:	89 c0                	mov    %eax,%eax
   21327:	41 8b 84 87 50 2f 03 	mov    0x10032f50(%r15,%rax,4),%eax
   2132e:	10 
   2132f:	66 0f 1f 84 00 00 00 	nopw   0x0(%rax,%rax,1)
   21336:	00 00 
   21338:	83 e0 e0             	and    $0xffffffe0,%eax
   2133b:	4c 01 f8             	add    %r15,%rax
   2133e:	ff d0                	callq  *%rax
   21340:	41 39 dc             	cmp    %ebx,%r12d
   21343:	77 db                	ja     21320 <__libc_init_array+0x40>
   21345:	66 66 66 2e 0f 1f 84 	data32 data32 nopw %cs:0x0(%rax,%rax,1)
   2134c:	00 00 00 00 00 
   21351:	66 66 66 66 66 66 2e 	data32 data32 data32 data32 data32 nopw %cs:0x0(%rax,%rax,1)
   21358:	0f 1f 84 00 00 00 00 
   2135f:	00 
   21360:	41 bc 50 2f 03 10    	mov    $0x10032f50,%r12d
   21366:	41 81 ec 50 2f 03 10 	sub    $0x10032f50,%r12d
   2136d:	41 c1 fc 02          	sar    $0x2,%r12d
   21371:	66 2e 0f 1f 84 00 00 	nopw   %cs:0x0(%rax,%rax,1)
   21378:	00 00 00 
   2137b:	e8 80 ec ff ff       	callq  20000 <_init>
   21380:	45 85 e4             	test   %r12d,%r12d
   21383:	74 5b                	je     213e0 <__libc_init_array+0x100>
   21385:	31 db                	xor    %ebx,%ebx
   21387:	66 2e 0f 1f 84 00 00 	nopw   %cs:0x0(%rax,%rax,1)
   2138e:	00 00 00 
   21391:	66 66 66 66 66 66 2e 	data32 data32 data32 data32 data32 nopw %cs:0x0(%rax,%rax,1)
   21398:	0f 1f 84 00 00 00 00 
   2139f:	00 
   213a0:	89 d8                	mov    %ebx,%eax
   213a2:	83 c3 01             	add    $0x1,%ebx
   213a5:	89 c0                	mov    %eax,%eax
   213a7:	41 8b 84 87 50 2f 03 	mov    0x10032f50(%r15,%rax,4),%eax
   213ae:	10 
   213af:	66 0f 1f 84 00 00 00 	nopw   0x0(%rax,%rax,1)
   213b6:	00 00 
   213b8:	83 e0 e0             	and    $0xffffffe0,%eax
   213bb:	4c 01 f8             	add    %r15,%rax
   213be:	ff d0                	callq  *%rax
   213c0:	41 39 dc             	cmp    %ebx,%r12d
   213c3:	77 db                	ja     213a0 <__libc_init_array+0xc0>
   213c5:	66 66 66 2e 0f 1f 84 	data32 data32 nopw %cs:0x0(%rax,%rax,1)
   213cc:	00 00 00 00 00 
   213d1:	66 66 66 66 66 66 2e 	data32 data32 data32 data32 data32 nopw %cs:0x0(%rax,%rax,1)
   213d8:	0f 1f 84 00 00 00 00 
   213df:	00 
   213e0:	83 c4 08             	add    $0x8,%esp
   213e3:	4c 01 fc             	add    %r15,%rsp
   213e6:	5b                   	pop    %rbx
   213e7:	41 5c                	pop    %r12
   213e9:	41 5b                	pop    %r11
   213eb:	41 83 e3 e0          	and    $0xffffffe0,%r11d
   213ef:	4d 01 fb             	add    %r15,%r11
   213f2:	41 ff e3             	jmpq   *%r11
   213f5:	90                   	nop
   213f6:	90                   	nop
   213f7:	90                   	nop
   213f8:	90                   	nop
   213f9:	90                   	nop
   213fa:	90                   	nop
   213fb:	90                   	nop
   213fc:	90                   	nop
   213fd:	90                   	nop
   213fe:	90                   	nop
   213ff:	90                   	nop

0000000000021400 <memcpy>:
   21400:	89 f8                	mov    %edi,%eax
   21402:	83 fa 10             	cmp    $0x10,%edx
   21405:	0f 82 9f 01 00 00    	jb     215aa <byte_copy>
   2140b:	41 89 f8             	mov    %edi,%r8d
   2140e:	41 83 e0 07          	and    $0x7,%r8d
   21412:	74 1a                	je     2142e <quadword_aligned>
   21414:	b9 08 00 00 00       	mov    $0x8,%ecx
   21419:	44 29 c1             	sub    %r8d,%ecx
   2141c:	29 ca                	sub    %ecx,%edx
   2141e:	66 90                	xchg   %ax,%ax
   21420:	89 f6                	mov    %esi,%esi
   21422:	49 8d 34 37          	lea    (%r15,%rsi,1),%rsi
   21426:	89 ff                	mov    %edi,%edi
   21428:	49 8d 3c 3f          	lea    (%r15,%rdi,1),%rdi
   2142c:	f3 a4                	rep movsb %ds:(%rsi),%es:(%rdi)

000000000002142e <quadword_aligned>:
   2142e:	89 f6                	mov    %esi,%esi
   21430:	81 fa 00 01 00 00    	cmp    $0x100,%edx
   21436:	0f 82 8e 01 00 00    	jb     215ca <quadword_copy>
   2143c:	50                   	push   %rax
   2143d:	41 54                	push   %r12
   2143f:	90                   	nop
   21440:	41 55                	push   %r13
   21442:	41 56                	push   %r14
   21444:	89 d1                	mov    %edx,%ecx
   21446:	c1 e9 07             	shr    $0x7,%ecx
   21449:	0f 1f 80 00 00 00 00 	nopl   0x0(%rax)

0000000000021450 <loop>:
   21450:	41 0f 18 84 37 00 03 	prefetchnta 0x300(%r15,%rsi,1)
   21457:	00 00 
   21459:	0f 1f 80 00 00 00 00 	nopl   0x0(%rax)
   21460:	41 0f 18 84 37 40 03 	prefetchnta 0x340(%r15,%rsi,1)
   21467:	00 00 
   21469:	89 f6                	mov    %esi,%esi
   2146b:	49 8b 04 37          	mov    (%r15,%rsi,1),%rax
   2146f:	89 f6                	mov    %esi,%esi
   21471:	4d 8b 44 37 08       	mov    0x8(%r15,%rsi,1),%r8
   21476:	89 f6                	mov    %esi,%esi
   21478:	4d 8b 4c 37 10       	mov    0x10(%r15,%rsi,1),%r9
   2147d:	0f 1f 00             	nopl   (%rax)
   21480:	89 f6                	mov    %esi,%esi
   21482:	4d 8b 54 37 18       	mov    0x18(%r15,%rsi,1),%r10
   21487:	89 f6                	mov    %esi,%esi
   21489:	4d 8b 5c 37 20       	mov    0x20(%r15,%rsi,1),%r11
   2148e:	89 f6                	mov    %esi,%esi
   21490:	4d 8b 64 37 28       	mov    0x28(%r15,%rsi,1),%r12
   21495:	89 f6                	mov    %esi,%esi
   21497:	4d 8b 6c 37 30       	mov    0x30(%r15,%rsi,1),%r13
   2149c:	0f 1f 40 00          	nopl   0x0(%rax)
   214a0:	89 f6                	mov    %esi,%esi
   214a2:	4d 8b 74 37 38       	mov    0x38(%r15,%rsi,1),%r14
   214a7:	89 ff                	mov    %edi,%edi
   214a9:	49 0f c3 04 3f       	movnti %rax,(%r15,%rdi,1)
   214ae:	89 ff                	mov    %edi,%edi
   214b0:	4d 0f c3 44 3f 08    	movnti %r8,0x8(%r15,%rdi,1)
   214b6:	89 ff                	mov    %edi,%edi
   214b8:	4d 0f c3 4c 3f 10    	movnti %r9,0x10(%r15,%rdi,1)
   214be:	66 90                	xchg   %ax,%ax
   214c0:	89 ff                	mov    %edi,%edi
   214c2:	4d 0f c3 54 3f 18    	movnti %r10,0x18(%r15,%rdi,1)
   214c8:	89 ff                	mov    %edi,%edi
   214ca:	4d 0f c3 5c 3f 20    	movnti %r11,0x20(%r15,%rdi,1)
   214d0:	89 ff                	mov    %edi,%edi
   214d2:	4d 0f c3 64 3f 28    	movnti %r12,0x28(%r15,%rdi,1)
   214d8:	89 ff                	mov    %edi,%edi
   214da:	4d 0f c3 6c 3f 30    	movnti %r13,0x30(%r15,%rdi,1)
   214e0:	89 ff                	mov    %edi,%edi
   214e2:	4d 0f c3 74 3f 38    	movnti %r14,0x38(%r15,%rdi,1)
   214e8:	89 f6                	mov    %esi,%esi
   214ea:	49 8b 44 37 40       	mov    0x40(%r15,%rsi,1),%rax
   214ef:	89 f6                	mov    %esi,%esi
   214f1:	4d 8b 44 37 48       	mov    0x48(%r15,%rsi,1),%r8
   214f6:	89 f6                	mov    %esi,%esi
   214f8:	4d 8b 4c 37 50       	mov    0x50(%r15,%rsi,1),%r9
   214fd:	0f 1f 00             	nopl   (%rax)
   21500:	89 f6                	mov    %esi,%esi
   21502:	4d 8b 54 37 58       	mov    0x58(%r15,%rsi,1),%r10
   21507:	89 f6                	mov    %esi,%esi
   21509:	4d 8b 5c 37 60       	mov    0x60(%r15,%rsi,1),%r11
   2150e:	89 f6                	mov    %esi,%esi
   21510:	4d 8b 64 37 68       	mov    0x68(%r15,%rsi,1),%r12
   21515:	89 f6                	mov    %esi,%esi
   21517:	4d 8b 6c 37 70       	mov    0x70(%r15,%rsi,1),%r13
   2151c:	0f 1f 40 00          	nopl   0x0(%rax)
   21520:	89 f6                	mov    %esi,%esi
   21522:	4d 8b 74 37 78       	mov    0x78(%r15,%rsi,1),%r14
   21527:	89 ff                	mov    %edi,%edi
   21529:	49 0f c3 44 3f 40    	movnti %rax,0x40(%r15,%rdi,1)
   2152f:	89 ff                	mov    %edi,%edi
   21531:	4d 0f c3 44 3f 48    	movnti %r8,0x48(%r15,%rdi,1)
   21537:	89 ff                	mov    %edi,%edi
   21539:	4d 0f c3 4c 3f 50    	movnti %r9,0x50(%r15,%rdi,1)
   2153f:	90                   	nop
   21540:	89 ff                	mov    %edi,%edi
   21542:	4d 0f c3 54 3f 58    	movnti %r10,0x58(%r15,%rdi,1)
   21548:	89 ff                	mov    %edi,%edi
   2154a:	4d 0f c3 5c 3f 60    	movnti %r11,0x60(%r15,%rdi,1)
   21550:	89 ff                	mov    %edi,%edi
   21552:	4d 0f c3 64 3f 68    	movnti %r12,0x68(%r15,%rdi,1)
   21558:	89 ff                	mov    %edi,%edi
   2155a:	4d 0f c3 6c 3f 70    	movnti %r13,0x70(%r15,%rdi,1)
   21560:	89 ff                	mov    %edi,%edi
   21562:	4d 0f c3 74 3f 78    	movnti %r14,0x78(%r15,%rdi,1)
   21568:	8d b6 80 00 00 00    	lea    0x80(%rsi),%esi
   2156e:	8d bf 80 00 00 00    	lea    0x80(%rdi),%edi
   21574:	ff c9                	dec    %ecx
   21576:	0f 85 d4 fe ff ff    	jne    21450 <loop>
   2157c:	0f ae f8             	sfence 
   2157f:	90                   	nop
   21580:	89 d1                	mov    %edx,%ecx
   21582:	83 e1 7f             	and    $0x7f,%ecx
   21585:	89 f6                	mov    %esi,%esi
   21587:	49 8d 34 37          	lea    (%r15,%rsi,1),%rsi
   2158b:	89 ff                	mov    %edi,%edi
   2158d:	49 8d 3c 3f          	lea    (%r15,%rdi,1),%rdi
   21591:	f3 a4                	rep movsb %ds:(%rsi),%es:(%rdi)
   21593:	41 5e                	pop    %r14
   21595:	41 5d                	pop    %r13
   21597:	41 5c                	pop    %r12
   21599:	58                   	pop    %rax
   2159a:	41 5b                	pop    %r11
   2159c:	0f 1f 40 00          	nopl   0x0(%rax)
   215a0:	41 83 e3 e0          	and    $0xffffffe0,%r11d
   215a4:	4d 01 fb             	add    %r15,%r11
   215a7:	41 ff e3             	jmpq   *%r11

00000000000215aa <byte_copy>:
   215aa:	89 d1                	mov    %edx,%ecx
   215ac:	89 f6                	mov    %esi,%esi
   215ae:	49 8d 34 37          	lea    (%r15,%rsi,1),%rsi
   215b2:	89 ff                	mov    %edi,%edi
   215b4:	49 8d 3c 3f          	lea    (%r15,%rdi,1),%rdi
   215b8:	f3 a4                	rep movsb %ds:(%rsi),%es:(%rdi)
   215ba:	41 5b                	pop    %r11
   215bc:	0f 1f 40 00          	nopl   0x0(%rax)
   215c0:	41 83 e3 e0          	and    $0xffffffe0,%r11d
   215c4:	4d 01 fb             	add    %r15,%r11
   215c7:	41 ff e3             	jmpq   *%r11

00000000000215ca <quadword_copy>:
   215ca:	89 d1                	mov    %edx,%ecx
   215cc:	c1 e9 03             	shr    $0x3,%ecx
   215cf:	90                   	nop
   215d0:	89 f6                	mov    %esi,%esi
   215d2:	49 8d 34 37          	lea    (%r15,%rsi,1),%rsi
   215d6:	89 ff                	mov    %edi,%edi
   215d8:	49 8d 3c 3f          	lea    (%r15,%rdi,1),%rdi
   215dc:	f3 48 a5             	rep movsq %ds:(%rsi),%es:(%rdi)
   215df:	90                   	nop
   215e0:	89 d1                	mov    %edx,%ecx
   215e2:	83 e1 07             	and    $0x7,%ecx
   215e5:	89 f6                	mov    %esi,%esi
   215e7:	49 8d 34 37          	lea    (%r15,%rsi,1),%rsi
   215eb:	89 ff                	mov    %edi,%edi
   215ed:	49 8d 3c 3f          	lea    (%r15,%rdi,1),%rdi
   215f1:	f3 a4                	rep movsb %ds:(%rsi),%es:(%rdi)
   215f3:	41 5b                	pop    %r11
   215f5:	41 83 e3 e0          	and    $0xffffffe0,%r11d
   215f9:	4d 01 fb             	add    %r15,%r11
   215fc:	41 ff e3             	jmpq   *%r11
   215ff:	90                   	nop

0000000000021600 <memset>:
   21600:	41 89 f9             	mov    %edi,%r9d
   21603:	89 f0                	mov    %esi,%eax
   21605:	89 d1                	mov    %edx,%ecx
   21607:	83 fa 10             	cmp    $0x10,%edx
   2160a:	0f 82 ff 00 00 00    	jb     2170f <byte_set>
   21610:	41 89 f8             	mov    %edi,%r8d
   21613:	41 83 e0 07          	and    $0x7,%r8d
   21617:	74 16                	je     2162f <quadword_aligned>
   21619:	b9 08 00 00 00       	mov    $0x8,%ecx
   2161e:	66 90                	xchg   %ax,%ax
   21620:	44 29 c1             	sub    %r8d,%ecx
   21623:	29 ca                	sub    %ecx,%edx
   21625:	89 ff                	mov    %edi,%edi
   21627:	49 8d 3c 3f          	lea    (%r15,%rdi,1),%rdi
   2162b:	f3 aa                	rep stos %al,%es:(%rdi)
   2162d:	89 d1                	mov    %edx,%ecx

000000000002162f <quadword_aligned>:
   2162f:	49 b8 01 01 01 01 01 	movabs $0x101010101010101,%r8
   21636:	01 01 01 
   21639:	40 0f b6 c6          	movzbl %sil,%eax
   2163d:	0f 1f 00             	nopl   (%rax)
   21640:	49 0f af c0          	imul   %r8,%rax
   21644:	81 fa 00 01 00 00    	cmp    $0x100,%edx
   2164a:	0f 82 da 00 00 00    	jb     2172a <quadword_set>
   21650:	c1 e9 07             	shr    $0x7,%ecx
   21653:	66 66 66 66 2e 0f 1f 	data32 data32 data32 nopw %cs:0x0(%rax,%rax,1)
   2165a:	84 00 00 00 00 00 

0000000000021660 <loop>:
   21660:	89 ff                	mov    %edi,%edi
   21662:	49 0f c3 04 3f       	movnti %rax,(%r15,%rdi,1)
   21667:	89 ff                	mov    %edi,%edi
   21669:	49 0f c3 44 3f 08    	movnti %rax,0x8(%r15,%rdi,1)
   2166f:	89 ff                	mov    %edi,%edi
   21671:	49 0f c3 44 3f 10    	movnti %rax,0x10(%r15,%rdi,1)
   21677:	89 ff                	mov    %edi,%edi
   21679:	49 0f c3 44 3f 18    	movnti %rax,0x18(%r15,%rdi,1)
   2167f:	90                   	nop
   21680:	89 ff                	mov    %edi,%edi
   21682:	49 0f c3 44 3f 20    	movnti %rax,0x20(%r15,%rdi,1)
   21688:	89 ff                	mov    %edi,%edi
   2168a:	49 0f c3 44 3f 28    	movnti %rax,0x28(%r15,%rdi,1)
   21690:	89 ff                	mov    %edi,%edi
   21692:	49 0f c3 44 3f 30    	movnti %rax,0x30(%r15,%rdi,1)
   21698:	89 ff                	mov    %edi,%edi
   2169a:	49 0f c3 44 3f 38    	movnti %rax,0x38(%r15,%rdi,1)
   216a0:	89 ff                	mov    %edi,%edi
   216a2:	49 0f c3 44 3f 40    	movnti %rax,0x40(%r15,%rdi,1)
   216a8:	89 ff                	mov    %edi,%edi
   216aa:	49 0f c3 44 3f 48    	movnti %rax,0x48(%r15,%rdi,1)
   216b0:	89 ff                	mov    %edi,%edi
   216b2:	49 0f c3 44 3f 50    	movnti %rax,0x50(%r15,%rdi,1)
   216b8:	89 ff                	mov    %edi,%edi
   216ba:	49 0f c3 44 3f 58    	movnti %rax,0x58(%r15,%rdi,1)
   216c0:	89 ff                	mov    %edi,%edi
   216c2:	49 0f c3 44 3f 60    	movnti %rax,0x60(%r15,%rdi,1)
   216c8:	89 ff                	mov    %edi,%edi
   216ca:	49 0f c3 44 3f 68    	movnti %rax,0x68(%r15,%rdi,1)
   216d0:	89 ff                	mov    %edi,%edi
   216d2:	49 0f c3 44 3f 70    	movnti %rax,0x70(%r15,%rdi,1)
   216d8:	89 ff                	mov    %edi,%edi
   216da:	49 0f c3 44 3f 78    	movnti %rax,0x78(%r15,%rdi,1)
   216e0:	8d bf 80 00 00 00    	lea    0x80(%rdi),%edi
   216e6:	ff c9                	dec    %ecx
   216e8:	0f 85 72 ff ff ff    	jne    21660 <loop>
   216ee:	0f ae f8             	sfence 
   216f1:	89 d1                	mov    %edx,%ecx
   216f3:	83 e1 7f             	and    $0x7f,%ecx
   216f6:	89 ff                	mov    %edi,%edi
   216f8:	49 8d 3c 3f          	lea    (%r15,%rdi,1),%rdi
   216fc:	f3 aa                	rep stos %al,%es:(%rdi)
   216fe:	66 90                	xchg   %ax,%ax
   21700:	44 89 c8             	mov    %r9d,%eax
   21703:	41 5b                	pop    %r11
   21705:	41 83 e3 e0          	and    $0xffffffe0,%r11d
   21709:	4d 01 fb             	add    %r15,%r11
   2170c:	41 ff e3             	jmpq   *%r11

000000000002170f <byte_set>:
   2170f:	89 ff                	mov    %edi,%edi
   21711:	49 8d 3c 3f          	lea    (%r15,%rdi,1),%rdi
   21715:	f3 aa                	rep stos %al,%es:(%rdi)
   21717:	44 89 c8             	mov    %r9d,%eax
   2171a:	41 5b                	pop    %r11
   2171c:	0f 1f 40 00          	nopl   0x0(%rax)
   21720:	41 83 e3 e0          	and    $0xffffffe0,%r11d
   21724:	4d 01 fb             	add    %r15,%r11
   21727:	41 ff e3             	jmpq   *%r11

000000000002172a <quadword_set>:
   2172a:	c1 e9 03             	shr    $0x3,%ecx
   2172d:	0f 1f 00             	nopl   (%rax)
   21730:	89 ff                	mov    %edi,%edi
   21732:	49 8d 3c 3f          	lea    (%r15,%rdi,1),%rdi
   21736:	f3 48 ab             	rep stos %rax,%es:(%rdi)
   21739:	89 d1                	mov    %edx,%ecx
   2173b:	83 e1 07             	and    $0x7,%ecx
   2173e:	66 90                	xchg   %ax,%ax
   21740:	89 ff                	mov    %edi,%edi
   21742:	49 8d 3c 3f          	lea    (%r15,%rdi,1),%rdi
   21746:	f3 aa                	rep stos %al,%es:(%rdi)
   21748:	44 89 c8             	mov    %r9d,%eax
   2174b:	41 5b                	pop    %r11
   2174d:	41 83 e3 e0          	and    $0xffffffe0,%r11d
   21751:	4d 01 fb             	add    %r15,%r11
   21754:	41 ff e3             	jmpq   *%r11
   21757:	90                   	nop
   21758:	90                   	nop
   21759:	90                   	nop
   2175a:	90                   	nop
   2175b:	90                   	nop
   2175c:	90                   	nop
   2175d:	90                   	nop
   2175e:	90                   	nop
   2175f:	90                   	nop

0000000000021760 <printf>:
   21760:	53                   	push   %rbx
   21761:	89 fb                	mov    %edi,%ebx
   21763:	81 ec c0 00 00 00    	sub    $0xc0,%esp
   21769:	4c 01 fc             	add    %r15,%rsp
   2176c:	8d 84 24 bf 00 00 00 	lea    0xbf(%rsp),%eax
   21773:	48 89 74 24 18       	mov    %rsi,0x18(%rsp)
   21778:	48 89 54 24 20       	mov    %rdx,0x20(%rsp)
   2177d:	0f 1f 00             	nopl   (%rax)
   21780:	48 89 4c 24 28       	mov    %rcx,0x28(%rsp)
   21785:	4c 89 44 24 30       	mov    %r8,0x30(%rsp)
   2178a:	4c 89 4c 24 38       	mov    %r9,0x38(%rsp)
   2178f:	89 c0                	mov    %eax,%eax
   21791:	41 0f 29 7c 07 f1    	movaps %xmm7,-0xf(%r15,%rax,1)
   21797:	89 c0                	mov    %eax,%eax
   21799:	41 0f 29 74 07 e1    	movaps %xmm6,-0x1f(%r15,%rax,1)
   2179f:	90                   	nop
   217a0:	89 c0                	mov    %eax,%eax
   217a2:	41 0f 29 6c 07 d1    	movaps %xmm5,-0x2f(%r15,%rax,1)
   217a8:	89 c0                	mov    %eax,%eax
   217aa:	41 0f 29 64 07 c1    	movaps %xmm4,-0x3f(%r15,%rax,1)
   217b0:	89 c0                	mov    %eax,%eax
   217b2:	41 0f 29 5c 07 b1    	movaps %xmm3,-0x4f(%r15,%rax,1)
   217b8:	89 c0                	mov    %eax,%eax
   217ba:	41 0f 29 54 07 a1    	movaps %xmm2,-0x5f(%r15,%rax,1)
   217c0:	89 c0                	mov    %eax,%eax
   217c2:	41 0f 29 4c 07 91    	movaps %xmm1,-0x6f(%r15,%rax,1)
   217c8:	89 c0                	mov    %eax,%eax
   217ca:	41 0f 29 44 07 81    	movaps %xmm0,-0x7f(%r15,%rax,1)
   217d0:	66 66 2e 0f 1f 84 00 	data32 nopw %cs:0x0(%rax,%rax,1)
   217d7:	00 00 00 00 
   217db:	e8 a0 ec ff ff       	callq  20480 <__nacl_read_tp>
   217e0:	48 8d 80 88 fb ff ff 	lea    -0x478(%rax),%rax
   217e7:	89 e1                	mov    %esp,%ecx
   217e9:	89 da                	mov    %ebx,%edx
   217eb:	c7 04 24 08 00 00 00 	movl   $0x8,(%rsp)
   217f2:	c7 44 24 04 30 00 00 	movl   $0x30,0x4(%rsp)
   217f9:	00 
   217fa:	89 c0                	mov    %eax,%eax
   217fc:	41 8b 3c 07          	mov    (%r15,%rax,1),%edi
   21800:	8d 84 24 d0 00 00 00 	lea    0xd0(%rsp),%eax
   21807:	89 44 24 08          	mov    %eax,0x8(%rsp)
   2180b:	8d 44 24 10          	lea    0x10(%rsp),%eax
   2180f:	89 ff                	mov    %edi,%edi
   21811:	41 8b 74 3f 08       	mov    0x8(%r15,%rdi,1),%esi
   21816:	89 44 24 0c          	mov    %eax,0xc(%rsp)
   2181a:	90                   	nop
   2181b:	e8 e0 00 00 00       	callq  21900 <_vfprintf_r>
   21820:	81 c4 c0 00 00 00    	add    $0xc0,%esp
   21826:	4c 01 fc             	add    %r15,%rsp
   21829:	5b                   	pop    %rbx
   2182a:	41 5b                	pop    %r11
   2182c:	41 83 e3 e0          	and    $0xffffffe0,%r11d
   21830:	4d 01 fb             	add    %r15,%r11
   21833:	41 ff e3             	jmpq   *%r11
   21836:	66 2e 0f 1f 84 00 00 	nopw   %cs:0x0(%rax,%rax,1)
   2183d:	00 00 00 

0000000000021840 <_printf_r>:
   21840:	81 ec c8 00 00 00    	sub    $0xc8,%esp
   21846:	4c 01 fc             	add    %r15,%rsp
   21849:	89 ff                	mov    %edi,%edi
   2184b:	8d 84 24 bf 00 00 00 	lea    0xbf(%rsp),%eax
   21852:	48 89 54 24 20       	mov    %rdx,0x20(%rsp)
   21857:	48 89 4c 24 28       	mov    %rcx,0x28(%rsp)
   2185c:	0f 1f 40 00          	nopl   0x0(%rax)
   21860:	4c 89 44 24 30       	mov    %r8,0x30(%rsp)
   21865:	4c 89 4c 24 38       	mov    %r9,0x38(%rsp)
   2186a:	89 f2                	mov    %esi,%edx
   2186c:	89 c0                	mov    %eax,%eax
   2186e:	41 0f 29 7c 07 f1    	movaps %xmm7,-0xf(%r15,%rax,1)
   21874:	89 c0                	mov    %eax,%eax
   21876:	41 0f 29 74 07 e1    	movaps %xmm6,-0x1f(%r15,%rax,1)
   2187c:	0f 1f 40 00          	nopl   0x0(%rax)
   21880:	89 c0                	mov    %eax,%eax
   21882:	41 0f 29 6c 07 d1    	movaps %xmm5,-0x2f(%r15,%rax,1)
   21888:	89 c0                	mov    %eax,%eax
   2188a:	41 0f 29 64 07 c1    	movaps %xmm4,-0x3f(%r15,%rax,1)
   21890:	89 c0                	mov    %eax,%eax
   21892:	41 0f 29 5c 07 b1    	movaps %xmm3,-0x4f(%r15,%rax,1)
   21898:	89 c0                	mov    %eax,%eax
   2189a:	41 0f 29 54 07 a1    	movaps %xmm2,-0x5f(%r15,%rax,1)
   218a0:	89 c0                	mov    %eax,%eax
   218a2:	41 0f 29 4c 07 91    	movaps %xmm1,-0x6f(%r15,%rax,1)
   218a8:	89 c0                	mov    %eax,%eax
   218aa:	41 0f 29 44 07 81    	movaps %xmm0,-0x7f(%r15,%rax,1)
   218b0:	8d 84 24 d0 00 00 00 	lea    0xd0(%rsp),%eax
   218b7:	89 ff                	mov    %edi,%edi
   218b9:	41 8b 74 3f 08       	mov    0x8(%r15,%rdi,1),%esi
   218be:	89 e1                	mov    %esp,%ecx
   218c0:	c7 04 24 10 00 00 00 	movl   $0x10,(%rsp)
   218c7:	c7 44 24 04 30 00 00 	movl   $0x30,0x4(%rsp)
   218ce:	00 
   218cf:	89 44 24 08          	mov    %eax,0x8(%rsp)
   218d3:	8d 44 24 10          	lea    0x10(%rsp),%eax
   218d7:	89 44 24 0c          	mov    %eax,0xc(%rsp)
   218db:	e8 20 00 00 00       	callq  21900 <_vfprintf_r>
   218e0:	81 c4 c8 00 00 00    	add    $0xc8,%esp
   218e6:	4c 01 fc             	add    %r15,%rsp
   218e9:	41 5b                	pop    %r11
   218eb:	41 83 e3 e0          	and    $0xffffffe0,%r11d
   218ef:	4d 01 fb             	add    %r15,%r11
   218f2:	41 ff e3             	jmpq   *%r11
   218f5:	90                   	nop
   218f6:	90                   	nop
   218f7:	90                   	nop
   218f8:	90                   	nop
   218f9:	90                   	nop
   218fa:	90                   	nop
   218fb:	90                   	nop
   218fc:	90                   	nop
   218fd:	90                   	nop
   218fe:	90                   	nop
   218ff:	90                   	nop

0000000000021900 <_vfprintf_r>:
   21900:	41 56                	push   %r14
   21902:	41 89 fe             	mov    %edi,%r14d
   21905:	89 f6                	mov    %esi,%esi
   21907:	89 c9                	mov    %ecx,%ecx
   21909:	44 89 f7             	mov    %r14d,%edi
   2190c:	41 55                	push   %r13
   2190e:	41 54                	push   %r12
   21910:	53                   	push   %rbx
   21911:	89 d3                	mov    %edx,%ebx
   21913:	81 ec 98 02 00 00    	sub    $0x298,%esp
   21919:	4c 01 fc             	add    %r15,%rsp
   2191c:	0f 1f 40 00          	nopl   0x0(%rax)
   21920:	48 89 b4 24 b8 00 00 	mov    %rsi,0xb8(%rsp)
   21927:	00 
   21928:	48 89 8c 24 c8 00 00 	mov    %rcx,0xc8(%rsp)
   2192f:	00 
   21930:	66 66 2e 0f 1f 84 00 	data32 nopw %cs:0x0(%rax,%rax,1)
   21937:	00 00 00 00 
   2193b:	e8 60 a5 00 00       	callq  2bea0 <_localeconv_r>
   21940:	89 c0                	mov    %eax,%eax
   21942:	89 c0                	mov    %eax,%eax
   21944:	41 8b 04 07          	mov    (%r15,%rax,1),%eax
   21948:	89 c7                	mov    %eax,%edi
   2194a:	48 89 84 24 10 01 00 	mov    %rax,0x110(%rsp)
   21951:	00 
   21952:	66 0f 1f 84 00 00 00 	nopw   0x0(%rax,%rax,1)
   21959:	00 00 
   2195b:	e8 40 f4 00 00       	callq  30da0 <strlen>
   21960:	89 84 24 24 01 00 00 	mov    %eax,0x124(%rsp)
   21967:	8d 84 24 50 02 00 00 	lea    0x250(%rsp),%eax
   2196e:	31 f6                	xor    %esi,%esi
   21970:	ba 08 00 00 00       	mov    $0x8,%edx
   21975:	89 c7                	mov    %eax,%edi
   21977:	48 89 44 24 78       	mov    %rax,0x78(%rsp)
   2197c:	0f 1f 40 00          	nopl   0x0(%rax)
   21980:	66 66 66 2e 0f 1f 84 	data32 data32 nopw %cs:0x0(%rax,%rax,1)
   21987:	00 00 00 00 00 
   2198c:	66 66 66 66 66 66 2e 	data32 data32 data32 data32 data32 nopw %cs:0x0(%rax,%rax,1)
   21993:	0f 1f 84 00 00 00 00 
   2199a:	00 
   2199b:	e8 60 fc ff ff       	callq  21600 <memset>
   219a0:	4d 85 f6             	test   %r14,%r14
   219a3:	74 1b                	je     219c0 <_vfprintf_r+0xc0>
   219a5:	45 89 f6             	mov    %r14d,%r14d
   219a8:	43 8b 7c 37 38       	mov    0x38(%r15,%r14,1),%edi
   219ad:	85 ff                	test   %edi,%edi
   219af:	0f 84 4b 0d 00 00    	je     22700 <_vfprintf_r+0xe00>
   219b5:	66 66 2e 0f 1f 84 00 	data32 nopw %cs:0x0(%rax,%rax,1)
   219bc:	00 00 00 00 
   219c0:	48 8b 8c 24 b8 00 00 	mov    0xb8(%rsp),%rcx
   219c7:	00 
   219c8:	89 c9                	mov    %ecx,%ecx
   219ca:	41 0f b7 54 0f 0c    	movzwl 0xc(%r15,%rcx,1),%edx
   219d0:	0f bf c2             	movswl %dx,%eax
   219d3:	f6 c4 02             	test   $0x2,%ah
   219d6:	0f 84 a4 0c 00 00    	je     22680 <_vfprintf_r+0xd80>
   219dc:	0f 1f 40 00          	nopl   0x0(%rax)
   219e0:	f6 c4 20             	test   $0x20,%ah
   219e3:	75 3b                	jne    21a20 <_vfprintf_r+0x120>
   219e5:	48 8b 84 24 b8 00 00 	mov    0xb8(%rsp),%rax
   219ec:	00 
   219ed:	80 ce 20             	or     $0x20,%dh
   219f0:	89 c0                	mov    %eax,%eax
   219f2:	66 41 89 54 07 0c    	mov    %dx,0xc(%r15,%rax,1)
   219f8:	0f 1f 84 00 00 00 00 	nopl   0x0(%rax,%rax,1)
   219ff:	00 
   21a00:	89 c0                	mov    %eax,%eax
   21a02:	41 81 64 07 78 ff df 	andl   $0xffffdfff,0x78(%r15,%rax,1)
   21a09:	ff ff 
   21a0b:	0f bf c2             	movswl %dx,%eax
   21a0e:	0f 1f 00             	nopl   (%rax)
   21a11:	66 66 66 66 66 66 2e 	data32 data32 data32 data32 data32 nopw %cs:0x0(%rax,%rax,1)
   21a18:	0f 1f 84 00 00 00 00 
   21a1f:	00 
   21a20:	a8 08                	test   $0x8,%al
   21a22:	0f 84 58 0b 00 00    	je     22580 <_vfprintf_r+0xc80>
   21a28:	48 8b 94 24 b8 00 00 	mov    0xb8(%rsp),%rdx
   21a2f:	00 
   21a30:	89 d2                	mov    %edx,%edx
   21a32:	41 8b 74 17 10       	mov    0x10(%r15,%rdx,1),%esi
   21a37:	85 f6                	test   %esi,%esi
   21a39:	0f 84 41 0b 00 00    	je     22580 <_vfprintf_r+0xc80>
   21a3f:	90                   	nop
   21a40:	89 c2                	mov    %eax,%edx
   21a42:	83 e2 1a             	and    $0x1a,%edx
   21a45:	83 fa 0a             	cmp    $0xa,%edx
   21a48:	0f 84 92 0b 00 00    	je     225e0 <_vfprintf_r+0xce0>
   21a4e:	0f 1f 00             	nopl   (%rax)
   21a51:	66 66 66 66 66 66 2e 	data32 data32 data32 data32 data32 nopw %cs:0x0(%rax,%rax,1)
   21a58:	0f 1f 84 00 00 00 00 
   21a5f:	00 
   21a60:	8d 84 24 d0 01 00 00 	lea    0x1d0(%rsp),%eax
   21a67:	8d 8c 24 60 01 00 00 	lea    0x160(%rsp),%ecx
   21a6e:	8d 94 24 78 02 00 00 	lea    0x278(%rsp),%edx
   21a75:	48 89 9c 24 a8 00 00 	mov    %rbx,0xa8(%rsp)
   21a7c:	00 
   21a7d:	0f 1f 00             	nopl   (%rax)
   21a80:	8d 9c 24 d0 01 00 00 	lea    0x1d0(%rsp),%ebx
   21a87:	c7 84 24 18 02 00 00 	movl   $0x0,0x218(%rsp)
   21a8e:	00 00 00 00 
   21a92:	48 89 44 24 70       	mov    %rax,0x70(%rsp)
   21a97:	89 84 24 10 02 00 00 	mov    %eax,0x210(%rsp)
   21a9e:	31 c0                	xor    %eax,%eax
   21aa0:	48 89 84 24 28 01 00 	mov    %rax,0x128(%rsp)
   21aa7:	00 
   21aa8:	48 89 4c 24 68       	mov    %rcx,0x68(%rsp)
   21aad:	8b 44 24 68          	mov    0x68(%rsp),%eax
   21ab1:	c7 84 24 14 02 00 00 	movl   $0x0,0x214(%rsp)
   21ab8:	00 00 00 00 
   21abc:	0f 1f 40 00          	nopl   0x0(%rax)
   21ac0:	c7 84 24 0c 01 00 00 	movl   $0x0,0x10c(%rsp)
   21ac7:	00 00 00 00 
   21acb:	48 c7 84 24 38 01 00 	movq   $0x0,0x138(%rsp)
   21ad2:	00 00 00 00 00 
   21ad7:	66 0f 1f 84 00 00 00 	nopw   0x0(%rax,%rax,1)
   21ade:	00 00 
   21ae0:	c7 84 24 34 01 00 00 	movl   $0x0,0x134(%rsp)
   21ae7:	00 00 00 00 
   21aeb:	48 c7 84 24 e8 00 00 	movq   $0x0,0xe8(%rsp)
   21af2:	00 00 00 00 00 
   21af7:	83 c0 64             	add    $0x64,%eax
   21afa:	66 0f 1f 44 00 00    	nopw   0x0(%rax,%rax,1)
   21b00:	c7 84 24 30 01 00 00 	movl   $0x0,0x130(%rsp)
   21b07:	00 00 00 00 
   21b0b:	48 c7 84 24 40 01 00 	movq   $0x0,0x140(%rsp)
   21b12:	00 00 00 00 00 
   21b17:	89 c0                	mov    %eax,%eax
   21b19:	0f 1f 80 00 00 00 00 	nopl   0x0(%rax)
   21b20:	c7 84 24 d0 00 00 00 	movl   $0x0,0xd0(%rsp)
   21b27:	00 00 00 00 
   21b2b:	48 89 54 24 60       	mov    %rdx,0x60(%rsp)
   21b30:	89 c6                	mov    %eax,%esi
   21b32:	48 89 84 24 00 01 00 	mov    %rax,0x100(%rsp)
   21b39:	00 
   21b3a:	66 0f 1f 44 00 00    	nopw   0x0(%rax,%rax,1)
   21b40:	8d 84 24 90 02 00 00 	lea    0x290(%rsp),%eax
   21b47:	83 ee 01             	sub    $0x1,%esi
   21b4a:	83 e8 69             	sub    $0x69,%eax
   21b4d:	48 89 b4 24 48 01 00 	mov    %rsi,0x148(%rsp)
   21b54:	00 
   21b55:	48 89 84 24 58 01 00 	mov    %rax,0x158(%rsp)
   21b5c:	00 
   21b5d:	0f 1f 00             	nopl   (%rax)
   21b60:	4c 8b a4 24 a8 00 00 	mov    0xa8(%rsp),%r12
   21b67:	00 
   21b68:	49 89 dd             	mov    %rbx,%r13
   21b6b:	eb 53                	jmp    21bc0 <_vfprintf_r+0x2c0>
   21b6d:	0f 1f 40 00          	nopl   0x0(%rax)
   21b71:	66 66 66 66 66 66 2e 	data32 data32 data32 data32 data32 nopw %cs:0x0(%rax,%rax,1)
   21b78:	0f 1f 84 00 00 00 00 
   21b7f:	00 
   21b80:	83 bc 24 78 02 00 00 	cmpl   $0x25,0x278(%rsp)
   21b87:	25 
   21b88:	0f 84 f2 00 00 00    	je     21c80 <_vfprintf_r+0x380>
   21b8e:	0f 1f 00             	nopl   (%rax)
   21b91:	66 66 66 66 66 66 2e 	data32 data32 data32 data32 data32 nopw %cs:0x0(%rax,%rax,1)
   21b98:	0f 1f 84 00 00 00 00 
   21b9f:	00 
   21ba0:	46 8d 24 20          	lea    (%rax,%r12,1),%r12d
   21ba4:	66 66 66 66 2e 0f 1f 	data32 data32 data32 nopw %cs:0x0(%rax,%rax,1)
   21bab:	84 00 00 00 00 00 
   21bb1:	66 66 66 66 66 66 2e 	data32 data32 data32 data32 data32 nopw %cs:0x0(%rax,%rax,1)
   21bb8:	0f 1f 84 00 00 00 00 
   21bbf:	00 
   21bc0:	8b 1d 9a 1a 01 10    	mov    0x10011a9a(%rip),%ebx        # 10033660 <__mbtowc>
   21bc6:	66 0f 1f 44 00 00    	nopw   0x0(%rax,%rax,1)
   21bcc:	66 66 66 66 66 66 2e 	data32 data32 data32 data32 data32 nopw %cs:0x0(%rax,%rax,1)
   21bd3:	0f 1f 84 00 00 00 00 
   21bda:	00 
   21bdb:	e8 40 a2 00 00       	callq  2be20 <__locale_charset>
   21be0:	41 89 c0             	mov    %eax,%r8d
   21be3:	4c 89 84 24 80 00 00 	mov    %r8,0x80(%rsp)
   21bea:	00 
   21beb:	90                   	nop
   21bec:	66 66 66 66 66 66 2e 	data32 data32 data32 data32 data32 nopw %cs:0x0(%rax,%rax,1)
   21bf3:	0f 1f 84 00 00 00 00 
   21bfa:	00 
   21bfb:	e8 40 a2 00 00       	callq  2be40 <__locale_mb_cur_max>
   21c00:	44 8b 4c 24 78       	mov    0x78(%rsp),%r9d
   21c05:	89 c1                	mov    %eax,%ecx
   21c07:	4c 8b 84 24 80 00 00 	mov    0x80(%rsp),%r8
   21c0e:	00 
   21c0f:	44 89 e2             	mov    %r12d,%edx
   21c12:	8b 74 24 60          	mov    0x60(%rsp),%esi
   21c16:	44 89 f7             	mov    %r14d,%edi
   21c19:	0f 1f 80 00 00 00 00 	nopl   0x0(%rax)
   21c20:	66 0f 1f 84 00 00 00 	nopw   0x0(%rax,%rax,1)
   21c27:	00 00 
   21c29:	66 66 66 66 66 66 2e 	data32 data32 data32 data32 data32 nopw %cs:0x0(%rax,%rax,1)
   21c30:	0f 1f 84 00 00 00 00 
   21c37:	00 
   21c38:	83 e3 e0             	and    $0xffffffe0,%ebx
   21c3b:	4c 01 fb             	add    %r15,%rbx
   21c3e:	ff d3                	callq  *%rbx
   21c40:	83 f8 00             	cmp    $0x0,%eax
   21c43:	74 3b                	je     21c80 <_vfprintf_r+0x380>
   21c45:	0f 8d 35 ff ff ff    	jge    21b80 <_vfprintf_r+0x280>
   21c4b:	8b 7c 24 78          	mov    0x78(%rsp),%edi
   21c4f:	ba 08 00 00 00       	mov    $0x8,%edx
   21c54:	31 f6                	xor    %esi,%esi
   21c56:	0f 1f 44 00 00       	nopl   0x0(%rax,%rax,1)
   21c5b:	e8 a0 f9 ff ff       	callq  21600 <memset>
   21c60:	b8 01 00 00 00       	mov    $0x1,%eax
   21c65:	e9 36 ff ff ff       	jmpq   21ba0 <_vfprintf_r+0x2a0>
   21c6a:	0f 1f 80 00 00 00 00 	nopl   0x0(%rax)
   21c71:	66 66 66 66 66 66 2e 	data32 data32 data32 data32 data32 nopw %cs:0x0(%rax,%rax,1)
   21c78:	0f 1f 84 00 00 00 00 
   21c7f:	00 
   21c80:	44 89 e1             	mov    %r12d,%ecx
   21c83:	2b 8c 24 a8 00 00 00 	sub    0xa8(%rsp),%ecx
   21c8a:	4c 89 eb             	mov    %r13,%rbx
   21c8d:	41 89 c5             	mov    %eax,%r13d
   21c90:	74 6e                	je     21d00 <_vfprintf_r+0x400>
   21c92:	89 db                	mov    %ebx,%ebx
   21c94:	41 89 4c 1f 04       	mov    %ecx,0x4(%r15,%rbx,1)
   21c99:	8b 84 24 14 02 00 00 	mov    0x214(%rsp),%eax
   21ca0:	8b 94 24 a8 00 00 00 	mov    0xa8(%rsp),%edx
   21ca7:	01 8c 24 18 02 00 00 	add    %ecx,0x218(%rsp)
   21cae:	83 c0 01             	add    $0x1,%eax
   21cb1:	83 f8 07             	cmp    $0x7,%eax
   21cb4:	89 db                	mov    %ebx,%ebx
   21cb6:	41 89 14 1f          	mov    %edx,(%r15,%rbx,1)
   21cba:	66 0f 1f 44 00 00    	nopw   0x0(%rax,%rax,1)
   21cc0:	89 84 24 14 02 00 00 	mov    %eax,0x214(%rsp)
   21cc7:	0f 8f f3 09 00 00    	jg     226c0 <_vfprintf_r+0xdc0>
   21ccd:	83 c3 08             	add    $0x8,%ebx
   21cd0:	90                   	nop
   21cd1:	66 66 66 66 66 66 2e 	data32 data32 data32 data32 data32 nopw %cs:0x0(%rax,%rax,1)
   21cd8:	0f 1f 84 00 00 00 00 
   21cdf:	00 
   21ce0:	01 8c 24 d0 00 00 00 	add    %ecx,0xd0(%rsp)
   21ce7:	66 2e 0f 1f 84 00 00 	nopw   %cs:0x0(%rax,%rax,1)
   21cee:	00 00 00 
   21cf1:	66 66 66 66 66 66 2e 	data32 data32 data32 data32 data32 nopw %cs:0x0(%rax,%rax,1)
   21cf8:	0f 1f 84 00 00 00 00 
   21cff:	00 
   21d00:	45 85 ed             	test   %r13d,%r13d
   21d03:	0f 84 17 3e 00 00    	je     25b20 <_vfprintf_r+0x4220>
   21d09:	41 83 c4 01          	add    $0x1,%r12d
   21d0d:	41 ba ff ff ff ff    	mov    $0xffffffff,%r10d
   21d13:	c6 84 24 8f 02 00 00 	movb   $0x0,0x28f(%rsp)
   21d1a:	00 
   21d1b:	45 31 ed             	xor    %r13d,%r13d
   21d1e:	66 90                	xchg   %ax,%ax
   21d20:	45 89 e4             	mov    %r12d,%r12d
   21d23:	43 0f b6 04 27       	movzbl (%r15,%r12,1),%eax
   21d28:	44 89 d2             	mov    %r10d,%edx
   21d2b:	c7 84 24 d4 00 00 00 	movl   $0x0,0xd4(%rsp)
   21d32:	00 00 00 00 
   21d36:	66 2e 0f 1f 84 00 00 	nopw   %cs:0x0(%rax,%rax,1)
   21d3d:	00 00 00 
   21d40:	0f be c0             	movsbl %al,%eax
   21d43:	41 83 c4 01          	add    $0x1,%r12d
   21d47:	66 2e 0f 1f 84 00 00 	nopw   %cs:0x0(%rax,%rax,1)
   21d4e:	00 00 00 
   21d51:	66 66 66 66 66 66 2e 	data32 data32 data32 data32 data32 nopw %cs:0x0(%rax,%rax,1)
   21d58:	0f 1f 84 00 00 00 00 
   21d5f:	00 
   21d60:	8d 48 e0             	lea    -0x20(%rax),%ecx
   21d63:	83 f9 5a             	cmp    $0x5a,%ecx
   21d66:	0f 86 54 07 00 00    	jbe    224c0 <_vfprintf_r+0xbc0>
   21d6c:	0f 1f 44 00 00       	nopl   0x0(%rax,%rax,1)
   21d71:	66 66 66 66 66 66 2e 	data32 data32 data32 data32 data32 nopw %cs:0x0(%rax,%rax,1)
   21d78:	0f 1f 84 00 00 00 00 
   21d7f:	00 
   21d80:	85 c0                	test   %eax,%eax
   21d82:	89 84 24 f8 00 00 00 	mov    %eax,0xf8(%rsp)
   21d89:	0f 84 91 3d 00 00    	je     25b20 <_vfprintf_r+0x4220>
   21d8f:	8d 94 24 60 01 00 00 	lea    0x160(%rsp),%edx
   21d96:	88 84 24 60 01 00 00 	mov    %al,0x160(%rsp)
   21d9d:	0f 1f 00             	nopl   (%rax)
   21da0:	c6 84 24 8f 02 00 00 	movb   $0x0,0x28f(%rsp)
   21da7:	00 
   21da8:	31 c0                	xor    %eax,%eax
   21daa:	c7 84 24 b0 00 00 00 	movl   $0x1,0xb0(%rsp)
   21db1:	01 00 00 00 
   21db5:	66 66 2e 0f 1f 84 00 	data32 nopw %cs:0x0(%rax,%rax,1)
   21dbc:	00 00 00 00 
   21dc0:	48 c7 84 24 e0 00 00 	movq   $0x0,0xe0(%rsp)
   21dc7:	00 00 00 00 00 
   21dcc:	48 89 94 24 a8 00 00 	mov    %rdx,0xa8(%rsp)
   21dd3:	00 
   21dd4:	c7 84 24 c4 00 00 00 	movl   $0x1,0xc4(%rsp)
   21ddb:	01 00 00 00 
   21ddf:	90                   	nop
   21de0:	c7 84 24 fc 00 00 00 	movl   $0x0,0xfc(%rsp)
   21de7:	00 00 00 00 
   21deb:	c7 84 24 08 01 00 00 	movl   $0x0,0x108(%rsp)
   21df2:	00 00 00 00 
   21df6:	66 2e 0f 1f 84 00 00 	nopw   %cs:0x0(%rax,%rax,1)
   21dfd:	00 00 00 
   21e00:	c7 84 24 20 01 00 00 	movl   $0x0,0x120(%rsp)
   21e07:	00 00 00 00 
   21e0b:	c7 84 24 1c 01 00 00 	movl   $0x0,0x11c(%rsp)
   21e12:	00 00 00 00 
   21e16:	66 2e 0f 1f 84 00 00 	nopw   %cs:0x0(%rax,%rax,1)
   21e1d:	00 00 00 
   21e20:	8b 94 24 b0 00 00 00 	mov    0xb0(%rsp),%edx
   21e27:	44 89 e9             	mov    %r13d,%ecx
   21e2a:	44 89 ee             	mov    %r13d,%esi
   21e2d:	83 c2 02             	add    $0x2,%edx
   21e30:	83 e1 02             	and    $0x2,%ecx
   21e33:	0f 44 94 24 b0 00 00 	cmove  0xb0(%rsp),%edx
   21e3a:	00 
   21e3b:	0f 1f 44 00 00       	nopl   0x0(%rax,%rax,1)
   21e40:	81 e6 84 00 00 00    	and    $0x84,%esi
   21e46:	89 8c 24 d8 00 00 00 	mov    %ecx,0xd8(%rsp)
   21e4d:	89 b4 24 f4 00 00 00 	mov    %esi,0xf4(%rsp)
   21e54:	89 94 24 b0 00 00 00 	mov    %edx,0xb0(%rsp)
   21e5b:	0f 1f 44 00 00       	nopl   0x0(%rax,%rax,1)
   21e60:	0f 85 5a 01 00 00    	jne    21fc0 <_vfprintf_r+0x6c0>
   21e66:	8b 8c 24 d4 00 00 00 	mov    0xd4(%rsp),%ecx
   21e6d:	29 d1                	sub    %edx,%ecx
   21e6f:	85 c9                	test   %ecx,%ecx
   21e71:	0f 8e 49 01 00 00    	jle    21fc0 <_vfprintf_r+0x6c0>
   21e77:	83 f9 10             	cmp    $0x10,%ecx
   21e7a:	0f 8e 00 01 00 00    	jle    21f80 <_vfprintf_r+0x680>
   21e80:	8d 84 24 10 02 00 00 	lea    0x210(%rsp),%eax
   21e87:	44 89 ac 24 54 01 00 	mov    %r13d,0x154(%rsp)
   21e8e:	00 
   21e8f:	4d 89 e5             	mov    %r12,%r13
   21e92:	4c 8b a4 24 b8 00 00 	mov    0xb8(%rsp),%r12
   21e99:	00 
   21e9a:	48 89 44 24 50       	mov    %rax,0x50(%rsp)
   21e9f:	90                   	nop
   21ea0:	48 89 d8             	mov    %rbx,%rax
   21ea3:	89 cb                	mov    %ecx,%ebx
   21ea5:	eb 39                	jmp    21ee0 <_vfprintf_r+0x5e0>
   21ea7:	66 2e 0f 1f 84 00 00 	nopw   %cs:0x0(%rax,%rax,1)
   21eae:	00 00 00 
   21eb1:	66 66 66 66 66 66 2e 	data32 data32 data32 data32 data32 nopw %cs:0x0(%rax,%rax,1)
   21eb8:	0f 1f 84 00 00 00 00 
   21ebf:	00 
   21ec0:	83 eb 10             	sub    $0x10,%ebx
   21ec3:	83 c0 08             	add    $0x8,%eax
   21ec6:	83 fb 10             	cmp    $0x10,%ebx
   21ec9:	0f 8e 91 00 00 00    	jle    21f60 <_vfprintf_r+0x660>
   21ecf:	66 90                	xchg   %ax,%ax
   21ed1:	66 66 66 66 66 66 2e 	data32 data32 data32 data32 data32 nopw %cs:0x0(%rax,%rax,1)
   21ed8:	0f 1f 84 00 00 00 00 
   21edf:	00 
   21ee0:	89 c0                	mov    %eax,%eax
   21ee2:	41 c7 44 07 04 10 00 	movl   $0x10,0x4(%r15,%rax,1)
   21ee9:	00 00 
   21eeb:	8b 94 24 14 02 00 00 	mov    0x214(%rsp),%edx
   21ef2:	83 84 24 18 02 00 00 	addl   $0x10,0x218(%rsp)
   21ef9:	10 
   21efa:	66 0f 1f 44 00 00    	nopw   0x0(%rax,%rax,1)
   21f00:	89 c0                	mov    %eax,%eax
   21f02:	41 c7 04 07 f0 05 02 	movl   $0x100205f0,(%r15,%rax,1)
   21f09:	10 
   21f0a:	83 c2 01             	add    $0x1,%edx
   21f0d:	83 fa 07             	cmp    $0x7,%edx
   21f10:	89 94 24 14 02 00 00 	mov    %edx,0x214(%rsp)
   21f17:	7e a7                	jle    21ec0 <_vfprintf_r+0x5c0>
   21f19:	8b 54 24 50          	mov    0x50(%rsp),%edx
   21f1d:	44 89 e6             	mov    %r12d,%esi
   21f20:	44 89 f7             	mov    %r14d,%edi
   21f23:	66 0f 1f 84 00 00 00 	nopw   0x0(%rax,%rax,1)
   21f2a:	00 00 
   21f2c:	66 66 66 66 66 66 2e 	data32 data32 data32 data32 data32 nopw %cs:0x0(%rax,%rax,1)
   21f33:	0f 1f 84 00 00 00 00 
   21f3a:	00 
   21f3b:	e8 a0 f6 00 00       	callq  315e0 <__sprint_r>
   21f40:	85 c0                	test   %eax,%eax
   21f42:	0f 85 98 14 00 00    	jne    233e0 <_vfprintf_r+0x1ae0>
   21f48:	83 eb 10             	sub    $0x10,%ebx
   21f4b:	8d 84 24 d0 01 00 00 	lea    0x1d0(%rsp),%eax
   21f52:	83 fb 10             	cmp    $0x10,%ebx
   21f55:	7f 89                	jg     21ee0 <_vfprintf_r+0x5e0>
   21f57:	66 0f 1f 84 00 00 00 	nopw   0x0(%rax,%rax,1)
   21f5e:	00 00 
   21f60:	4d 89 ec             	mov    %r13,%r12
   21f63:	44 8b ac 24 54 01 00 	mov    0x154(%rsp),%r13d
   21f6a:	00 
   21f6b:	89 d9                	mov    %ebx,%ecx
   21f6d:	48 89 c3             	mov    %rax,%rbx
   21f70:	90                   	nop
   21f71:	66 66 66 66 66 66 2e 	data32 data32 data32 data32 data32 nopw %cs:0x0(%rax,%rax,1)
   21f78:	0f 1f 84 00 00 00 00 
   21f7f:	00 
   21f80:	89 db                	mov    %ebx,%ebx
   21f82:	41 89 4c 1f 04       	mov    %ecx,0x4(%r15,%rbx,1)
   21f87:	8b 84 24 14 02 00 00 	mov    0x214(%rsp),%eax
   21f8e:	01 8c 24 18 02 00 00 	add    %ecx,0x218(%rsp)
   21f95:	89 db                	mov    %ebx,%ebx
   21f97:	41 c7 04 1f f0 05 02 	movl   $0x100205f0,(%r15,%rbx,1)
   21f9e:	10 
   21f9f:	90                   	nop
   21fa0:	83 c0 01             	add    $0x1,%eax
   21fa3:	83 f8 07             	cmp    $0x7,%eax
   21fa6:	89 84 24 14 02 00 00 	mov    %eax,0x214(%rsp)
   21fad:	0f 8f ad 1e 00 00    	jg     23e60 <_vfprintf_r+0x2560>
   21fb3:	0f b6 84 24 8f 02 00 	movzbl 0x28f(%rsp),%eax
   21fba:	00 
   21fbb:	83 c3 08             	add    $0x8,%ebx
   21fbe:	66 90                	xchg   %ax,%ax
   21fc0:	84 c0                	test   %al,%al
   21fc2:	74 5c                	je     22020 <_vfprintf_r+0x720>
   21fc4:	8d 84 24 8f 02 00 00 	lea    0x28f(%rsp),%eax
   21fcb:	89 db                	mov    %ebx,%ebx
   21fcd:	41 c7 44 1f 04 01 00 	movl   $0x1,0x4(%r15,%rbx,1)
   21fd4:	00 00 
   21fd6:	83 84 24 18 02 00 00 	addl   $0x1,0x218(%rsp)
   21fdd:	01 
   21fde:	66 90                	xchg   %ax,%ax
   21fe0:	89 db                	mov    %ebx,%ebx
   21fe2:	41 89 04 1f          	mov    %eax,(%r15,%rbx,1)
   21fe6:	8b 84 24 14 02 00 00 	mov    0x214(%rsp),%eax
   21fed:	83 c0 01             	add    $0x1,%eax
   21ff0:	83 f8 07             	cmp    $0x7,%eax
   21ff3:	89 84 24 14 02 00 00 	mov    %eax,0x214(%rsp)
   21ffa:	0f 8f 00 1b 00 00    	jg     23b00 <_vfprintf_r+0x2200>
   22000:	83 c3 08             	add    $0x8,%ebx
   22003:	66 66 66 66 66 2e 0f 	data32 data32 data32 data32 nopw %cs:0x0(%rax,%rax,1)
   2200a:	1f 84 00 00 00 00 00 
   22011:	66 66 66 66 66 66 2e 	data32 data32 data32 data32 data32 nopw %cs:0x0(%rax,%rax,1)
   22018:	0f 1f 84 00 00 00 00 
   2201f:	00 
   22020:	44 8b 8c 24 d8 00 00 	mov    0xd8(%rsp),%r9d
   22027:	00 
   22028:	45 85 c9             	test   %r9d,%r9d
   2202b:	74 53                	je     22080 <_vfprintf_r+0x780>
   2202d:	8d 84 24 80 02 00 00 	lea    0x280(%rsp),%eax
   22034:	89 db                	mov    %ebx,%ebx
   22036:	41 c7 44 1f 04 02 00 	movl   $0x2,0x4(%r15,%rbx,1)
   2203d:	00 00 
   2203f:	90                   	nop
   22040:	83 84 24 18 02 00 00 	addl   $0x2,0x218(%rsp)
   22047:	02 
   22048:	89 db                	mov    %ebx,%ebx
   2204a:	41 89 04 1f          	mov    %eax,(%r15,%rbx,1)
   2204e:	8b 84 24 14 02 00 00 	mov    0x214(%rsp),%eax
   22055:	83 c0 01             	add    $0x1,%eax
   22058:	83 f8 07             	cmp    $0x7,%eax
   2205b:	0f 1f 44 00 00       	nopl   0x0(%rax,%rax,1)
   22060:	89 84 24 14 02 00 00 	mov    %eax,0x214(%rsp)
   22067:	0f 8f d3 1a 00 00    	jg     23b40 <_vfprintf_r+0x2240>
   2206d:	83 c3 08             	add    $0x8,%ebx
   22070:	90                   	nop
   22071:	66 66 66 66 66 66 2e 	data32 data32 data32 data32 data32 nopw %cs:0x0(%rax,%rax,1)
   22078:	0f 1f 84 00 00 00 00 
   2207f:	00 
   22080:	81 bc 24 f4 00 00 00 	cmpl   $0x80,0xf4(%rsp)
   22087:	80 00 00 00 
   2208b:	0f 84 8f 16 00 00    	je     23720 <_vfprintf_r+0x1e20>
   22091:	66 66 66 66 66 66 2e 	data32 data32 data32 data32 data32 nopw %cs:0x0(%rax,%rax,1)
   22098:	0f 1f 84 00 00 00 00 
   2209f:	00 
   220a0:	8b 8c 24 fc 00 00 00 	mov    0xfc(%rsp),%ecx
   220a7:	2b 8c 24 c4 00 00 00 	sub    0xc4(%rsp),%ecx
   220ae:	85 c9                	test   %ecx,%ecx
   220b0:	0f 8e 4a 01 00 00    	jle    22200 <_vfprintf_r+0x900>
   220b6:	83 f9 10             	cmp    $0x10,%ecx
   220b9:	0f 8e 01 01 00 00    	jle    221c0 <_vfprintf_r+0x8c0>
   220bf:	90                   	nop
   220c0:	8d b4 24 10 02 00 00 	lea    0x210(%rsp),%esi
   220c7:	48 89 d8             	mov    %rbx,%rax
   220ca:	44 89 ac 24 d8 00 00 	mov    %r13d,0xd8(%rsp)
   220d1:	00 
   220d2:	89 cb                	mov    %ecx,%ebx
   220d4:	4d 89 e5             	mov    %r12,%r13
   220d7:	4c 8b a4 24 b8 00 00 	mov    0xb8(%rsp),%r12
   220de:	00 
   220df:	90                   	nop
   220e0:	48 89 74 24 40       	mov    %rsi,0x40(%rsp)
   220e5:	eb 39                	jmp    22120 <_vfprintf_r+0x820>
   220e7:	66 2e 0f 1f 84 00 00 	nopw   %cs:0x0(%rax,%rax,1)
   220ee:	00 00 00 
   220f1:	66 66 66 66 66 66 2e 	data32 data32 data32 data32 data32 nopw %cs:0x0(%rax,%rax,1)
   220f8:	0f 1f 84 00 00 00 00 
   220ff:	00 
   22100:	83 eb 10             	sub    $0x10,%ebx
   22103:	83 c0 08             	add    $0x8,%eax
   22106:	83 fb 10             	cmp    $0x10,%ebx
   22109:	0f 8e 91 00 00 00    	jle    221a0 <_vfprintf_r+0x8a0>
   2210f:	66 90                	xchg   %ax,%ax
   22111:	66 66 66 66 66 66 2e 	data32 data32 data32 data32 data32 nopw %cs:0x0(%rax,%rax,1)
   22118:	0f 1f 84 00 00 00 00 
   2211f:	00 
   22120:	89 c0                	mov    %eax,%eax
   22122:	41 c7 44 07 04 10 00 	movl   $0x10,0x4(%r15,%rax,1)
   22129:	00 00 
   2212b:	8b 94 24 14 02 00 00 	mov    0x214(%rsp),%edx
   22132:	83 84 24 18 02 00 00 	addl   $0x10,0x218(%rsp)
   22139:	10 
   2213a:	66 0f 1f 44 00 00    	nopw   0x0(%rax,%rax,1)
   22140:	89 c0                	mov    %eax,%eax
   22142:	41 c7 04 07 e0 05 02 	movl   $0x100205e0,(%r15,%rax,1)
   22149:	10 
   2214a:	83 c2 01             	add    $0x1,%edx
   2214d:	83 fa 07             	cmp    $0x7,%edx
   22150:	89 94 24 14 02 00 00 	mov    %edx,0x214(%rsp)
   22157:	7e a7                	jle    22100 <_vfprintf_r+0x800>
   22159:	8b 54 24 40          	mov    0x40(%rsp),%edx
   2215d:	44 89 e6             	mov    %r12d,%esi
   22160:	44 89 f7             	mov    %r14d,%edi
   22163:	66 0f 1f 84 00 00 00 	nopw   0x0(%rax,%rax,1)
   2216a:	00 00 
   2216c:	66 66 66 66 66 66 2e 	data32 data32 data32 data32 data32 nopw %cs:0x0(%rax,%rax,1)
   22173:	0f 1f 84 00 00 00 00 
   2217a:	00 
   2217b:	e8 60 f4 00 00       	callq  315e0 <__sprint_r>
   22180:	85 c0                	test   %eax,%eax
   22182:	0f 85 58 12 00 00    	jne    233e0 <_vfprintf_r+0x1ae0>
   22188:	83 eb 10             	sub    $0x10,%ebx
   2218b:	8d 84 24 d0 01 00 00 	lea    0x1d0(%rsp),%eax
   22192:	83 fb 10             	cmp    $0x10,%ebx
   22195:	7f 89                	jg     22120 <_vfprintf_r+0x820>
   22197:	66 0f 1f 84 00 00 00 	nopw   0x0(%rax,%rax,1)
   2219e:	00 00 
   221a0:	4d 89 ec             	mov    %r13,%r12
   221a3:	44 8b ac 24 d8 00 00 	mov    0xd8(%rsp),%r13d
   221aa:	00 
   221ab:	89 d9                	mov    %ebx,%ecx
   221ad:	48 89 c3             	mov    %rax,%rbx
   221b0:	90                   	nop
   221b1:	66 66 66 66 66 66 2e 	data32 data32 data32 data32 data32 nopw %cs:0x0(%rax,%rax,1)
   221b8:	0f 1f 84 00 00 00 00 
   221bf:	00 
   221c0:	89 db                	mov    %ebx,%ebx
   221c2:	41 89 4c 1f 04       	mov    %ecx,0x4(%r15,%rbx,1)
   221c7:	8b 84 24 14 02 00 00 	mov    0x214(%rsp),%eax
   221ce:	01 8c 24 18 02 00 00 	add    %ecx,0x218(%rsp)
   221d5:	89 db                	mov    %ebx,%ebx
   221d7:	41 c7 04 1f e0 05 02 	movl   $0x100205e0,(%r15,%rbx,1)
   221de:	10 
   221df:	90                   	nop
   221e0:	83 c0 01             	add    $0x1,%eax
   221e3:	83 f8 07             	cmp    $0x7,%eax
   221e6:	89 84 24 14 02 00 00 	mov    %eax,0x214(%rsp)
   221ed:	0f 8f cd 18 00 00    	jg     23ac0 <_vfprintf_r+0x21c0>
   221f3:	83 c3 08             	add    $0x8,%ebx
   221f6:	66 2e 0f 1f 84 00 00 	nopw   %cs:0x0(%rax,%rax,1)
   221fd:	00 00 00 
   22200:	41 f7 c5 00 01 00 00 	test   $0x100,%r13d
   22207:	0f 85 73 12 00 00    	jne    23480 <_vfprintf_r+0x1b80>
   2220d:	8b 94 24 c4 00 00 00 	mov    0xc4(%rsp),%edx
   22214:	8b 84 24 a8 00 00 00 	mov    0xa8(%rsp),%eax
   2221b:	0f 1f 44 00 00       	nopl   0x0(%rax,%rax,1)
   22220:	89 db                	mov    %ebx,%ebx
   22222:	41 89 54 1f 04       	mov    %edx,0x4(%r15,%rbx,1)
   22227:	01 94 24 18 02 00 00 	add    %edx,0x218(%rsp)
   2222e:	89 db                	mov    %ebx,%ebx
   22230:	41 89 04 1f          	mov    %eax,(%r15,%rbx,1)
   22234:	66 66 66 2e 0f 1f 84 	data32 data32 nopw %cs:0x0(%rax,%rax,1)
   2223b:	00 00 00 00 00 
   22240:	8b 84 24 14 02 00 00 	mov    0x214(%rsp),%eax
   22247:	83 c0 01             	add    $0x1,%eax
   2224a:	83 f8 07             	cmp    $0x7,%eax
   2224d:	89 84 24 14 02 00 00 	mov    %eax,0x214(%rsp)
   22254:	0f 8f e6 17 00 00    	jg     23a40 <_vfprintf_r+0x2140>
   2225a:	83 c3 08             	add    $0x8,%ebx
   2225d:	0f 1f 00             	nopl   (%rax)
   22260:	41 83 e5 04          	and    $0x4,%r13d
   22264:	0f 84 96 01 00 00    	je     22400 <_vfprintf_r+0xb00>
   2226a:	44 8b ac 24 d4 00 00 	mov    0xd4(%rsp),%r13d
   22271:	00 
   22272:	44 2b ac 24 b0 00 00 	sub    0xb0(%rsp),%r13d
   22279:	00 
   2227a:	45 85 ed             	test   %r13d,%r13d
   2227d:	0f 1f 00             	nopl   (%rax)
   22280:	0f 8e 7a 01 00 00    	jle    22400 <_vfprintf_r+0xb00>
   22286:	41 83 fd 10          	cmp    $0x10,%r13d
   2228a:	0f 8e f0 00 00 00    	jle    22380 <_vfprintf_r+0xa80>
   22290:	8d 8c 24 10 02 00 00 	lea    0x210(%rsp),%ecx
   22297:	48 89 d8             	mov    %rbx,%rax
   2229a:	66 0f 1f 44 00 00    	nopw   0x0(%rax,%rax,1)
   222a0:	48 8b 9c 24 b8 00 00 	mov    0xb8(%rsp),%rbx
   222a7:	00 
   222a8:	48 89 4c 24 08       	mov    %rcx,0x8(%rsp)
   222ad:	eb 31                	jmp    222e0 <_vfprintf_r+0x9e0>
   222af:	66 90                	xchg   %ax,%ax
   222b1:	66 66 66 66 66 66 2e 	data32 data32 data32 data32 data32 nopw %cs:0x0(%rax,%rax,1)
   222b8:	0f 1f 84 00 00 00 00 
   222bf:	00 
   222c0:	41 83 ed 10          	sub    $0x10,%r13d
   222c4:	83 c0 08             	add    $0x8,%eax
   222c7:	41 83 fd 10          	cmp    $0x10,%r13d
   222cb:	0f 8e 8f 00 00 00    	jle    22360 <_vfprintf_r+0xa60>
   222d1:	66 66 66 66 66 66 2e 	data32 data32 data32 data32 data32 nopw %cs:0x0(%rax,%rax,1)
   222d8:	0f 1f 84 00 00 00 00 
   222df:	00 
   222e0:	89 c0                	mov    %eax,%eax
   222e2:	41 c7 44 07 04 10 00 	movl   $0x10,0x4(%r15,%rax,1)
   222e9:	00 00 
   222eb:	8b 94 24 14 02 00 00 	mov    0x214(%rsp),%edx
   222f2:	83 84 24 18 02 00 00 	addl   $0x10,0x218(%rsp)
   222f9:	10 
   222fa:	66 0f 1f 44 00 00    	nopw   0x0(%rax,%rax,1)
   22300:	89 c0                	mov    %eax,%eax
   22302:	41 c7 04 07 f0 05 02 	movl   $0x100205f0,(%r15,%rax,1)
   22309:	10 
   2230a:	83 c2 01             	add    $0x1,%edx
   2230d:	83 fa 07             	cmp    $0x7,%edx
   22310:	89 94 24 14 02 00 00 	mov    %edx,0x214(%rsp)
   22317:	7e a7                	jle    222c0 <_vfprintf_r+0x9c0>
   22319:	8b 54 24 08          	mov    0x8(%rsp),%edx
   2231d:	89 de                	mov    %ebx,%esi
   2231f:	90                   	nop
   22320:	44 89 f7             	mov    %r14d,%edi
   22323:	66 0f 1f 84 00 00 00 	nopw   0x0(%rax,%rax,1)
   2232a:	00 00 
   2232c:	66 66 66 66 66 66 2e 	data32 data32 data32 data32 data32 nopw %cs:0x0(%rax,%rax,1)
   22333:	0f 1f 84 00 00 00 00 
   2233a:	00 
   2233b:	e8 a0 f2 00 00       	callq  315e0 <__sprint_r>
   22340:	85 c0                	test   %eax,%eax
   22342:	0f 85 98 10 00 00    	jne    233e0 <_vfprintf_r+0x1ae0>
   22348:	41 83 ed 10          	sub    $0x10,%r13d
   2234c:	8d 84 24 d0 01 00 00 	lea    0x1d0(%rsp),%eax
   22353:	41 83 fd 10          	cmp    $0x10,%r13d
   22357:	7f 87                	jg     222e0 <_vfprintf_r+0x9e0>
   22359:	0f 1f 80 00 00 00 00 	nopl   0x0(%rax)
   22360:	48 89 c3             	mov    %rax,%rbx
   22363:	66 66 66 66 66 2e 0f 	data32 data32 data32 data32 nopw %cs:0x0(%rax,%rax,1)
   2236a:	1f 84 00 00 00 00 00 
   22371:	66 66 66 66 66 66 2e 	data32 data32 data32 data32 data32 nopw %cs:0x0(%rax,%rax,1)
   22378:	0f 1f 84 00 00 00 00 
   2237f:	00 
   22380:	89 db                	mov    %ebx,%ebx
   22382:	45 89 6c 1f 04       	mov    %r13d,0x4(%r15,%rbx,1)
   22387:	8b 84 24 14 02 00 00 	mov    0x214(%rsp),%eax
   2238e:	44 03 ac 24 18 02 00 	add    0x218(%rsp),%r13d
   22395:	00 
   22396:	89 db                	mov    %ebx,%ebx
   22398:	41 c7 04 1f f0 05 02 	movl   $0x100205f0,(%r15,%rbx,1)
   2239f:	10 
   223a0:	83 c0 01             	add    $0x1,%eax
   223a3:	83 f8 07             	cmp    $0x7,%eax
   223a6:	89 84 24 14 02 00 00 	mov    %eax,0x214(%rsp)
   223ad:	44 89 ac 24 18 02 00 	mov    %r13d,0x218(%rsp)
   223b4:	00 
   223b5:	7e 69                	jle    22420 <_vfprintf_r+0xb20>
   223b7:	8b b4 24 b8 00 00 00 	mov    0xb8(%rsp),%esi
   223be:	66 90                	xchg   %ax,%ax
   223c0:	8d 94 24 10 02 00 00 	lea    0x210(%rsp),%edx
   223c7:	44 89 f7             	mov    %r14d,%edi
   223ca:	66 90                	xchg   %ax,%ax
   223cc:	66 66 66 66 66 66 2e 	data32 data32 data32 data32 data32 nopw %cs:0x0(%rax,%rax,1)
   223d3:	0f 1f 84 00 00 00 00 
   223da:	00 
   223db:	e8 00 f2 00 00       	callq  315e0 <__sprint_r>
   223e0:	85 c0                	test   %eax,%eax
   223e2:	0f 85 f8 0f 00 00    	jne    233e0 <_vfprintf_r+0x1ae0>
   223e8:	66 0f 1f 84 00 00 00 	nopw   0x0(%rax,%rax,1)
   223ef:	00 00 
   223f1:	66 66 66 66 66 66 2e 	data32 data32 data32 data32 data32 nopw %cs:0x0(%rax,%rax,1)
   223f8:	0f 1f 84 00 00 00 00 
   223ff:	00 
   22400:	44 8b ac 24 18 02 00 	mov    0x218(%rsp),%r13d
   22407:	00 
   22408:	66 0f 1f 84 00 00 00 	nopw   0x0(%rax,%rax,1)
   2240f:	00 00 
   22411:	66 66 66 66 66 66 2e 	data32 data32 data32 data32 data32 nopw %cs:0x0(%rax,%rax,1)
   22418:	0f 1f 84 00 00 00 00 
   2241f:	00 
   22420:	8b 9c 24 d4 00 00 00 	mov    0xd4(%rsp),%ebx
   22427:	39 9c 24 b0 00 00 00 	cmp    %ebx,0xb0(%rsp)
   2242e:	89 d8                	mov    %ebx,%eax
   22430:	0f 4d 84 24 b0 00 00 	cmovge 0xb0(%rsp),%eax
   22437:	00 
   22438:	01 84 24 d0 00 00 00 	add    %eax,0xd0(%rsp)
   2243f:	90                   	nop
   22440:	45 85 ed             	test   %r13d,%r13d
   22443:	0f 85 37 16 00 00    	jne    23a80 <_vfprintf_r+0x2180>
   22449:	0f 1f 84 00 00 00 00 	nopl   0x0(%rax,%rax,1)
   22450:	00 
   22451:	66 66 66 66 66 66 2e 	data32 data32 data32 data32 data32 nopw %cs:0x0(%rax,%rax,1)
   22458:	0f 1f 84 00 00 00 00 
   2245f:	00 
   22460:	48 83 bc 24 e0 00 00 	cmpq   $0x0,0xe0(%rsp)
   22467:	00 00 
   22469:	c7 84 24 14 02 00 00 	movl   $0x0,0x214(%rsp)
   22470:	00 00 00 00 
   22474:	8d 9c 24 d0 01 00 00 	lea    0x1d0(%rsp),%ebx
   2247b:	0f 1f 44 00 00       	nopl   0x0(%rax,%rax,1)
   22480:	74 1e                	je     224a0 <_vfprintf_r+0xba0>
   22482:	8b b4 24 e0 00 00 00 	mov    0xe0(%rsp),%esi
   22489:	8d 9c 24 d0 01 00 00 	lea    0x1d0(%rsp),%ebx
   22490:	44 89 f7             	mov    %r14d,%edi
   22493:	0f 1f 84 00 00 00 00 	nopl   0x0(%rax,%rax,1)
   2249a:	00 
   2249b:	e8 40 73 01 00       	callq  397e0 <_free_r>
   224a0:	4c 89 a4 24 a8 00 00 	mov    %r12,0xa8(%rsp)
   224a7:	00 
   224a8:	e9 b3 f6 ff ff       	jmpq   21b60 <_vfprintf_r+0x260>
   224ad:	0f 1f 40 00          	nopl   0x0(%rax)
   224b1:	66 66 66 66 66 66 2e 	data32 data32 data32 data32 data32 nopw %cs:0x0(%rax,%rax,1)
   224b8:	0f 1f 84 00 00 00 00 
   224bf:	00 
   224c0:	89 c9                	mov    %ecx,%ecx
   224c2:	89 c9                	mov    %ecx,%ecx
   224c4:	49 8b 8c cf 00 03 02 	mov    0x10020300(%r15,%rcx,8),%rcx
   224cb:	10 
   224cc:	83 e1 e0             	and    $0xffffffe0,%ecx
   224cf:	4c 01 f9             	add    %r15,%rcx
   224d2:	ff e1                	jmpq   *%rcx
   224d4:	66 66 66 2e 0f 1f 84 	data32 data32 nopw %cs:0x0(%rax,%rax,1)
   224db:	00 00 00 00 00 
   224e0:	41 83 cd 20          	or     $0x20,%r13d
   224e4:	45 89 e4             	mov    %r12d,%r12d
   224e7:	43 0f b6 04 27       	movzbl (%r15,%r12,1),%eax
   224ec:	e9 4f f8 ff ff       	jmpq   21d40 <_vfprintf_r+0x440>
   224f1:	66 66 66 66 66 66 2e 	data32 data32 data32 data32 data32 nopw %cs:0x0(%rax,%rax,1)
   224f8:	0f 1f 84 00 00 00 00 
   224ff:	00 
   22500:	48 8b b4 24 c8 00 00 	mov    0xc8(%rsp),%rsi
   22507:	00 
   22508:	89 f6                	mov    %esi,%esi
   2250a:	41 8b 04 37          	mov    (%r15,%rsi,1),%eax
   2250e:	83 f8 2f             	cmp    $0x2f,%eax
   22511:	0f 87 69 28 00 00    	ja     24d80 <_vfprintf_r+0x3480>
   22517:	89 f6                	mov    %esi,%esi
   22519:	41 8b 4c 37 0c       	mov    0xc(%r15,%rsi,1),%ecx
   2251e:	01 c1                	add    %eax,%ecx
   22520:	83 c0 08             	add    $0x8,%eax
   22523:	89 f6                	mov    %esi,%esi
   22525:	41 89 04 37          	mov    %eax,(%r15,%rsi,1)
   22529:	0f 1f 84 00 00 00 00 	nopl   0x0(%rax,%rax,1)
   22530:	00 
   22531:	66 66 66 66 66 66 2e 	data32 data32 data32 data32 data32 nopw %cs:0x0(%rax,%rax,1)
   22538:	0f 1f 84 00 00 00 00 
   2253f:	00 
   22540:	89 c9                	mov    %ecx,%ecx
   22542:	41 8b 0c 0f          	mov    (%r15,%rcx,1),%ecx
   22546:	85 c9                	test   %ecx,%ecx
   22548:	89 8c 24 d4 00 00 00 	mov    %ecx,0xd4(%rsp)
   2254f:	0f 88 2b 02 00 00    	js     22780 <_vfprintf_r+0xe80>
   22555:	66 66 2e 0f 1f 84 00 	data32 nopw %cs:0x0(%rax,%rax,1)
   2255c:	00 00 00 00 
   22560:	45 89 e4             	mov    %r12d,%r12d
   22563:	43 0f b6 04 27       	movzbl (%r15,%r12,1),%eax
   22568:	e9 d3 f7 ff ff       	jmpq   21d40 <_vfprintf_r+0x440>
   2256d:	0f 1f 40 00          	nopl   0x0(%rax)
   22571:	66 66 66 66 66 66 2e 	data32 data32 data32 data32 data32 nopw %cs:0x0(%rax,%rax,1)
   22578:	0f 1f 84 00 00 00 00 
   2257f:	00 
   22580:	8b b4 24 b8 00 00 00 	mov    0xb8(%rsp),%esi
   22587:	44 89 f7             	mov    %r14d,%edi
   2258a:	66 90                	xchg   %ax,%ax
   2258c:	66 66 66 66 66 66 2e 	data32 data32 data32 data32 data32 nopw %cs:0x0(%rax,%rax,1)
   22593:	0f 1f 84 00 00 00 00 
   2259a:	00 
   2259b:	e8 20 59 00 00       	callq  27ec0 <__swsetup_r>
   225a0:	85 c0                	test   %eax,%eax
   225a2:	0f 85 18 41 00 00    	jne    266c0 <_vfprintf_r+0x4dc0>
   225a8:	48 8b 8c 24 b8 00 00 	mov    0xb8(%rsp),%rcx
   225af:	00 
   225b0:	89 c9                	mov    %ecx,%ecx
   225b2:	41 0f bf 44 0f 0c    	movswl 0xc(%r15,%rcx,1),%eax
   225b8:	89 c2                	mov    %eax,%edx
   225ba:	83 e2 1a             	and    $0x1a,%edx
   225bd:	83 fa 0a             	cmp    $0xa,%edx
   225c0:	0f 85 9a f4 ff ff    	jne    21a60 <_vfprintf_r+0x160>
   225c6:	66 66 2e 0f 1f 84 00 	data32 nopw %cs:0x0(%rax,%rax,1)
   225cd:	00 00 00 00 
   225d1:	66 66 66 66 66 66 2e 	data32 data32 data32 data32 data32 nopw %cs:0x0(%rax,%rax,1)
   225d8:	0f 1f 84 00 00 00 00 
   225df:	00 
   225e0:	48 8b b4 24 b8 00 00 	mov    0xb8(%rsp),%rsi
   225e7:	00 
   225e8:	89 f6                	mov    %esi,%esi
   225ea:	66 41 83 7c 37 0e 00 	cmpw   $0x0,0xe(%r15,%rsi,1)
   225f1:	0f 88 69 f4 ff ff    	js     21a60 <_vfprintf_r+0x160>
   225f7:	f6 c4 02             	test   $0x2,%ah
   225fa:	0f 84 40 01 00 00    	je     22740 <_vfprintf_r+0xe40>
   22600:	8b 8c 24 c8 00 00 00 	mov    0xc8(%rsp),%ecx
   22607:	8b b4 24 b8 00 00 00 	mov    0xb8(%rsp),%esi
   2260e:	89 da                	mov    %ebx,%edx
   22610:	44 89 f7             	mov    %r14d,%edi
   22613:	0f 1f 84 00 00 00 00 	nopl   0x0(%rax,%rax,1)
   2261a:	00 
   2261b:	e8 40 4d 00 00       	callq  27360 <__sbprintf>
   22620:	89 84 24 d0 00 00 00 	mov    %eax,0xd0(%rsp)
   22627:	66 2e 0f 1f 84 00 00 	nopw   %cs:0x0(%rax,%rax,1)
   2262e:	00 00 00 
   22631:	66 66 66 66 66 66 2e 	data32 data32 data32 data32 data32 nopw %cs:0x0(%rax,%rax,1)
   22638:	0f 1f 84 00 00 00 00 
   2263f:	00 
   22640:	8b 84 24 d0 00 00 00 	mov    0xd0(%rsp),%eax
   22647:	81 c4 98 02 00 00    	add    $0x298,%esp
   2264d:	4c 01 fc             	add    %r15,%rsp
   22650:	5b                   	pop    %rbx
   22651:	41 5c                	pop    %r12
   22653:	41 5d                	pop    %r13
   22655:	41 5e                	pop    %r14
   22657:	41 5b                	pop    %r11
   22659:	0f 1f 80 00 00 00 00 	nopl   0x0(%rax)
   22660:	41 83 e3 e0          	and    $0xffffffe0,%r11d
   22664:	4d 01 fb             	add    %r15,%r11
   22667:	41 ff e3             	jmpq   *%r11
   2266a:	0f 1f 80 00 00 00 00 	nopl   0x0(%rax)
   22671:	66 66 66 66 66 66 2e 	data32 data32 data32 data32 data32 nopw %cs:0x0(%rax,%rax,1)
   22678:	0f 1f 84 00 00 00 00 
   2267f:	00 
   22680:	8b bc 24 b8 00 00 00 	mov    0xb8(%rsp),%edi
   22687:	83 c7 5c             	add    $0x5c,%edi
   2268a:	66 90                	xchg   %ax,%ax
   2268c:	66 66 66 66 66 66 2e 	data32 data32 data32 data32 data32 nopw %cs:0x0(%rax,%rax,1)
   22693:	0f 1f 84 00 00 00 00 
   2269a:	00 
   2269b:	e8 60 43 01 00       	callq  36a00 <__local_lock_acquire_recursive>
   226a0:	48 8b b4 24 b8 00 00 	mov    0xb8(%rsp),%rsi
   226a7:	00 
   226a8:	89 f6                	mov    %esi,%esi
   226aa:	41 0f b7 54 37 0c    	movzwl 0xc(%r15,%rsi,1),%edx
   226b0:	0f bf c2             	movswl %dx,%eax
   226b3:	e9 28 f3 ff ff       	jmpq   219e0 <_vfprintf_r+0xe0>
   226b8:	0f 1f 84 00 00 00 00 	nopl   0x0(%rax,%rax,1)
   226bf:	00 
   226c0:	8b b4 24 b8 00 00 00 	mov    0xb8(%rsp),%esi
   226c7:	8d 94 24 10 02 00 00 	lea    0x210(%rsp),%edx
   226ce:	44 89 f7             	mov    %r14d,%edi
   226d1:	89 8c 24 90 00 00 00 	mov    %ecx,0x90(%rsp)
   226d8:	0f 1f 00             	nopl   (%rax)
   226db:	e8 00 ef 00 00       	callq  315e0 <__sprint_r>
   226e0:	85 c0                	test   %eax,%eax
   226e2:	8b 8c 24 90 00 00 00 	mov    0x90(%rsp),%ecx
   226e9:	0f 85 71 48 00 00    	jne    26f60 <_vfprintf_r+0x5660>
   226ef:	8d 9c 24 d0 01 00 00 	lea    0x1d0(%rsp),%ebx
   226f6:	e9 e5 f5 ff ff       	jmpq   21ce0 <_vfprintf_r+0x3e0>
   226fb:	0f 1f 44 00 00       	nopl   0x0(%rax,%rax,1)
   22700:	44 89 f7             	mov    %r14d,%edi
   22703:	66 0f 1f 84 00 00 00 	nopw   0x0(%rax,%rax,1)
   2270a:	00 00 
   2270c:	66 66 66 66 66 66 2e 	data32 data32 data32 data32 data32 nopw %cs:0x0(%rax,%rax,1)
   22713:	0f 1f 84 00 00 00 00 
   2271a:	00 
   2271b:	e8 60 8d 00 00       	callq  2b480 <__sinit>
   22720:	e9 9b f2 ff ff       	jmpq   219c0 <_vfprintf_r+0xc0>
   22725:	66 66 66 2e 0f 1f 84 	data32 data32 nopw %cs:0x0(%rax,%rax,1)
   2272c:	00 00 00 00 00 
   22731:	66 66 66 66 66 66 2e 	data32 data32 data32 data32 data32 nopw %cs:0x0(%rax,%rax,1)
   22738:	0f 1f 84 00 00 00 00 
   2273f:	00 
   22740:	8b bc 24 b8 00 00 00 	mov    0xb8(%rsp),%edi
   22747:	83 c7 5c             	add    $0x5c,%edi
   2274a:	66 90                	xchg   %ax,%ax
   2274c:	66 66 66 66 66 66 2e 	data32 data32 data32 data32 data32 nopw %cs:0x0(%rax,%rax,1)
   22753:	0f 1f 84 00 00 00 00 
   2275a:	00 
   2275b:	e8 20 43 01 00       	callq  36a80 <__local_lock_release_recursive>
   22760:	e9 9b fe ff ff       	jmpq   22600 <_vfprintf_r+0xd00>
   22765:	66 66 66 2e 0f 1f 84 	data32 data32 nopw %cs:0x0(%rax,%rax,1)
   2276c:	00 00 00 00 00 
   22771:	66 66 66 66 66 66 2e 	data32 data32 data32 data32 data32 nopw %cs:0x0(%rax,%rax,1)
   22778:	0f 1f 84 00 00 00 00 
   2277f:	00 
   22780:	f7 9c 24 d4 00 00 00 	negl   0xd4(%rsp)
   22787:	66 2e 0f 1f 84 00 00 	nopw   %cs:0x0(%rax,%rax,1)
   2278e:	00 00 00 
   22791:	66 66 66 66 66 66 2e 	data32 data32 data32 data32 data32 nopw %cs:0x0(%rax,%rax,1)
   22798:	0f 1f 84 00 00 00 00 
   2279f:	00 
   227a0:	41 83 cd 04          	or     $0x4,%r13d
   227a4:	45 89 e4             	mov    %r12d,%r12d
   227a7:	43 0f b6 04 27       	movzbl (%r15,%r12,1),%eax
   227ac:	e9 8f f5 ff ff       	jmpq   21d40 <_vfprintf_r+0x440>
   227b1:	66 66 66 66 66 66 2e 	data32 data32 data32 data32 data32 nopw %cs:0x0(%rax,%rax,1)
   227b8:	0f 1f 84 00 00 00 00 
   227bf:	00 
   227c0:	48 8b 94 24 c8 00 00 	mov    0xc8(%rsp),%rdx
   227c7:	00 
   227c8:	89 d2                	mov    %edx,%edx
   227ca:	41 8b 04 17          	mov    (%r15,%rdx,1),%eax
   227ce:	83 f8 2f             	cmp    $0x2f,%eax
   227d1:	0f 87 89 25 00 00    	ja     24d60 <_vfprintf_r+0x3460>
   227d7:	48 89 d1             	mov    %rdx,%rcx
   227da:	66 0f 1f 44 00 00    	nopw   0x0(%rax,%rax,1)
   227e0:	89 d2                	mov    %edx,%edx
   227e2:	41 8b 54 17 0c       	mov    0xc(%r15,%rdx,1),%edx
   227e7:	01 c2                	add    %eax,%edx
   227e9:	83 c0 08             	add    $0x8,%eax
   227ec:	89 c9                	mov    %ecx,%ecx
   227ee:	41 89 04 0f          	mov    %eax,(%r15,%rcx,1)
   227f2:	66 66 66 66 66 2e 0f 	data32 data32 data32 data32 nopw %cs:0x0(%rax,%rax,1)
   227f9:	1f 84 00 00 00 00 00 
   22800:	89 d2                	mov    %edx,%edx
   22802:	41 8b 0c 17          	mov    (%r15,%rdx,1),%ecx
   22806:	41 83 cd 02          	or     $0x2,%r13d
   2280a:	c6 84 24 80 02 00 00 	movb   $0x30,0x280(%rsp)
   22811:	30 
   22812:	c6 84 24 81 02 00 00 	movb   $0x78,0x281(%rsp)
   22819:	78 
   2281a:	66 0f 1f 44 00 00    	nopw   0x0(%rax,%rax,1)
   22820:	48 c7 84 24 38 01 00 	movq   $0x100202e5,0x138(%rsp)
   22827:	00 e5 02 02 10 
   2282c:	b8 02 00 00 00       	mov    $0x2,%eax
   22831:	c7 84 24 f8 00 00 00 	movl   $0x78,0xf8(%rsp)
   22838:	78 00 00 00 
   2283c:	48 85 c9             	test   %rcx,%rcx
   2283f:	90                   	nop
   22840:	40 0f 95 c6          	setne  %sil
   22844:	66 66 66 66 2e 0f 1f 	data32 data32 data32 nopw %cs:0x0(%rax,%rax,1)
   2284b:	84 00 00 00 00 00 
   22851:	66 66 66 66 66 66 2e 	data32 data32 data32 data32 data32 nopw %cs:0x0(%rax,%rax,1)
   22858:	0f 1f 84 00 00 00 00 
   2285f:	00 
   22860:	c6 84 24 8f 02 00 00 	movb   $0x0,0x28f(%rsp)
   22867:	00 
   22868:	66 0f 1f 84 00 00 00 	nopw   0x0(%rax,%rax,1)
   2286f:	00 00 
   22871:	66 66 66 66 66 66 2e 	data32 data32 data32 data32 data32 nopw %cs:0x0(%rax,%rax,1)
   22878:	0f 1f 84 00 00 00 00 
   2287f:	00 
   22880:	44 89 ea             	mov    %r13d,%edx
   22883:	80 e2 7f             	and    $0x7f,%dl
   22886:	45 85 d2             	test   %r10d,%r10d
   22889:	44 0f 49 ea          	cmovns %edx,%r13d
   2288d:	45 85 d2             	test   %r10d,%r10d
   22890:	75 0e                	jne    228a0 <_vfprintf_r+0xfa0>
   22892:	40 84 f6             	test   %sil,%sil
   22895:	0f 84 05 0e 00 00    	je     236a0 <_vfprintf_r+0x1da0>
   2289b:	0f 1f 44 00 00       	nopl   0x0(%rax,%rax,1)
   228a0:	83 f8 01             	cmp    $0x1,%eax
   228a3:	0f 84 77 15 00 00    	je     23e20 <_vfprintf_r+0x2520>
   228a9:	83 f8 02             	cmp    $0x2,%eax
   228ac:	0f 84 ee 14 00 00    	je     23da0 <_vfprintf_r+0x24a0>
   228b2:	48 8b 94 24 00 01 00 	mov    0x100(%rsp),%rdx
   228b9:	00 
   228ba:	66 0f 1f 44 00 00    	nopw   0x0(%rax,%rax,1)
   228c0:	48 89 94 24 a8 00 00 	mov    %rdx,0xa8(%rsp)
   228c7:	00 
   228c8:	66 0f 1f 84 00 00 00 	nopw   0x0(%rax,%rax,1)
   228cf:	00 00 
   228d1:	66 66 66 66 66 66 2e 	data32 data32 data32 data32 data32 nopw %cs:0x0(%rax,%rax,1)
   228d8:	0f 1f 84 00 00 00 00 
   228df:	00 
   228e0:	89 c8                	mov    %ecx,%eax
   228e2:	48 c1 e9 03          	shr    $0x3,%rcx
   228e6:	83 ea 01             	sub    $0x1,%edx
   228e9:	83 e0 07             	and    $0x7,%eax
   228ec:	83 c0 30             	add    $0x30,%eax
   228ef:	48 85 c9             	test   %rcx,%rcx
   228f2:	89 d2                	mov    %edx,%edx
   228f4:	41 88 04 17          	mov    %al,(%r15,%rdx,1)
   228f8:	75 e6                	jne    228e0 <_vfprintf_r+0xfe0>
   228fa:	41 f6 c5 01          	test   $0x1,%r13b
   228fe:	66 90                	xchg   %ax,%ax
   22900:	48 89 94 24 a8 00 00 	mov    %rdx,0xa8(%rsp)
   22907:	00 
   22908:	0f 85 12 23 00 00    	jne    24c20 <_vfprintf_r+0x3320>
   2290e:	8b 8c 24 00 01 00 00 	mov    0x100(%rsp),%ecx
   22915:	48 8b b4 24 e8 00 00 	mov    0xe8(%rsp),%rsi
   2291c:	00 
   2291d:	29 d1                	sub    %edx,%ecx
   2291f:	90                   	nop
   22920:	89 8c 24 c4 00 00 00 	mov    %ecx,0xc4(%rsp)
   22927:	66 2e 0f 1f 84 00 00 	nopw   %cs:0x0(%rax,%rax,1)
   2292e:	00 00 00 
   22931:	66 66 66 66 66 66 2e 	data32 data32 data32 data32 data32 nopw %cs:0x0(%rax,%rax,1)
   22938:	0f 1f 84 00 00 00 00 
   2293f:	00 
   22940:	44 39 94 24 c4 00 00 	cmp    %r10d,0xc4(%rsp)
   22947:	00 
   22948:	8b 84 24 c4 00 00 00 	mov    0xc4(%rsp),%eax
   2294f:	44 89 94 24 fc 00 00 	mov    %r10d,0xfc(%rsp)
   22956:	00 
   22957:	48 89 b4 24 e8 00 00 	mov    %rsi,0xe8(%rsp)
   2295e:	00 
   2295f:	90                   	nop
   22960:	48 c7 84 24 e0 00 00 	movq   $0x0,0xe0(%rsp)
   22967:	00 00 00 00 00 
   2296c:	c7 84 24 08 01 00 00 	movl   $0x0,0x108(%rsp)
   22973:	00 00 00 00 
   22977:	66 0f 1f 84 00 00 00 	nopw   0x0(%rax,%rax,1)
   2297e:	00 00 
   22980:	c7 84 24 20 01 00 00 	movl   $0x0,0x120(%rsp)
   22987:	00 00 00 00 
   2298b:	c7 84 24 1c 01 00 00 	movl   $0x0,0x11c(%rsp)
   22992:	00 00 00 00 
   22996:	41 0f 4c c2          	cmovl  %r10d,%eax
   2299a:	66 0f 1f 44 00 00    	nopw   0x0(%rax,%rax,1)
   229a0:	89 84 24 b0 00 00 00 	mov    %eax,0xb0(%rsp)
   229a7:	0f b6 84 24 8f 02 00 	movzbl 0x28f(%rsp),%eax
   229ae:	00 
   229af:	66 90                	xchg   %ax,%ax
   229b1:	66 66 66 66 66 66 2e 	data32 data32 data32 data32 data32 nopw %cs:0x0(%rax,%rax,1)
   229b8:	0f 1f 84 00 00 00 00 
   229bf:	00 
   229c0:	84 c0                	test   %al,%al
   229c2:	0f 84 58 f4 ff ff    	je     21e20 <_vfprintf_r+0x520>
   229c8:	66 0f 1f 84 00 00 00 	nopw   0x0(%rax,%rax,1)
   229cf:	00 00 
   229d1:	66 66 66 66 66 66 2e 	data32 data32 data32 data32 data32 nopw %cs:0x0(%rax,%rax,1)
   229d8:	0f 1f 84 00 00 00 00 
   229df:	00 
   229e0:	83 84 24 b0 00 00 00 	addl   $0x1,0xb0(%rsp)
   229e7:	01 
   229e8:	e9 33 f4 ff ff       	jmpq   21e20 <_vfprintf_r+0x520>
   229ed:	0f 1f 40 00          	nopl   0x0(%rax)
   229f1:	66 66 66 66 66 66 2e 	data32 data32 data32 data32 data32 nopw %cs:0x0(%rax,%rax,1)
   229f8:	0f 1f 84 00 00 00 00 
   229ff:	00 
   22a00:	45 89 e4             	mov    %r12d,%r12d
   22a03:	43 0f b6 04 27       	movzbl (%r15,%r12,1),%eax
   22a08:	3c 6c                	cmp    $0x6c,%al
   22a0a:	0f 84 30 33 00 00    	je     25d40 <_vfprintf_r+0x4440>
   22a10:	41 83 cd 10          	or     $0x10,%r13d
   22a14:	e9 27 f3 ff ff       	jmpq   21d40 <_vfprintf_r+0x440>
   22a19:	0f 1f 80 00 00 00 00 	nopl   0x0(%rax)
   22a20:	83 f8 43             	cmp    $0x43,%eax
   22a23:	89 84 24 f8 00 00 00 	mov    %eax,0xf8(%rsp)
   22a2a:	0f 84 90 1f 00 00    	je     249c0 <_vfprintf_r+0x30c0>
   22a30:	41 f6 c5 10          	test   $0x10,%r13b
   22a34:	0f 85 86 1f 00 00    	jne    249c0 <_vfprintf_r+0x30c0>
   22a3a:	66 0f 1f 44 00 00    	nopw   0x0(%rax,%rax,1)
   22a40:	48 8b 8c 24 c8 00 00 	mov    0xc8(%rsp),%rcx
   22a47:	00 
   22a48:	89 c9                	mov    %ecx,%ecx
   22a4a:	41 8b 04 0f          	mov    (%r15,%rcx,1),%eax
   22a4e:	83 f8 2f             	cmp    $0x2f,%eax
   22a51:	0f 87 09 30 00 00    	ja     25a60 <_vfprintf_r+0x4160>
   22a57:	89 c9                	mov    %ecx,%ecx
   22a59:	41 8b 54 0f 0c       	mov    0xc(%r15,%rcx,1),%edx
   22a5e:	01 c2                	add    %eax,%edx
   22a60:	83 c0 08             	add    $0x8,%eax
   22a63:	89 c9                	mov    %ecx,%ecx
   22a65:	41 89 04 0f          	mov    %eax,(%r15,%rcx,1)
   22a69:	0f 1f 84 00 00 00 00 	nopl   0x0(%rax,%rax,1)
   22a70:	00 
   22a71:	66 66 66 66 66 66 2e 	data32 data32 data32 data32 data32 nopw %cs:0x0(%rax,%rax,1)
   22a78:	0f 1f 84 00 00 00 00 
   22a7f:	00 
   22a80:	89 d2                	mov    %edx,%edx
   22a82:	41 8b 04 17          	mov    (%r15,%rdx,1),%eax
   22a86:	c7 84 24 c4 00 00 00 	movl   $0x1,0xc4(%rsp)
   22a8d:	01 00 00 00 
   22a91:	88 84 24 60 01 00 00 	mov    %al,0x160(%rsp)
   22a98:	e9 e3 1f 00 00       	jmpq   24a80 <_vfprintf_r+0x3180>
   22a9d:	0f 1f 00             	nopl   (%rax)
   22aa0:	89 84 24 f8 00 00 00 	mov    %eax,0xf8(%rsp)
   22aa7:	41 83 cd 10          	or     $0x10,%r13d
   22aab:	66 0f 1f 44 00 00    	nopw   0x0(%rax,%rax,1)
   22ab1:	66 66 66 66 66 66 2e 	data32 data32 data32 data32 data32 nopw %cs:0x0(%rax,%rax,1)
   22ab8:	0f 1f 84 00 00 00 00 
   22abf:	00 
   22ac0:	41 f6 c5 20          	test   $0x20,%r13b
   22ac4:	0f 84 36 14 00 00    	je     23f00 <_vfprintf_r+0x2600>
   22aca:	48 8b 8c 24 c8 00 00 	mov    0xc8(%rsp),%rcx
   22ad1:	00 
   22ad2:	89 c9                	mov    %ecx,%ecx
   22ad4:	41 8b 04 0f          	mov    (%r15,%rcx,1),%eax
   22ad8:	83 f8 2f             	cmp    $0x2f,%eax
   22adb:	0f 1f 44 00 00       	nopl   0x0(%rax,%rax,1)
   22ae0:	0f 87 ba 21 00 00    	ja     24ca0 <_vfprintf_r+0x33a0>
   22ae6:	89 c9                	mov    %ecx,%ecx
   22ae8:	41 8b 54 0f 0c       	mov    0xc(%r15,%rcx,1),%edx
   22aed:	01 c2                	add    %eax,%edx
   22aef:	83 c0 08             	add    $0x8,%eax
   22af2:	89 c9                	mov    %ecx,%ecx
   22af4:	41 89 04 0f          	mov    %eax,(%r15,%rcx,1)
   22af8:	0f 1f 84 00 00 00 00 	nopl   0x0(%rax,%rax,1)
   22aff:	00 
   22b00:	89 d2                	mov    %edx,%edx
   22b02:	49 8b 0c 17          	mov    (%r15,%rdx,1),%rcx
   22b06:	66 66 2e 0f 1f 84 00 	data32 nopw %cs:0x0(%rax,%rax,1)
   22b0d:	00 00 00 00 
   22b11:	66 66 66 66 66 66 2e 	data32 data32 data32 data32 data32 nopw %cs:0x0(%rax,%rax,1)
   22b18:	0f 1f 84 00 00 00 00 
   22b1f:	00 
   22b20:	48 83 f9 00          	cmp    $0x0,%rcx
   22b24:	0f 8c 56 21 00 00    	jl     24c80 <_vfprintf_r+0x3380>
   22b2a:	40 0f 95 c6          	setne  %sil
   22b2e:	b8 01 00 00 00       	mov    $0x1,%eax
   22b33:	e9 48 fd ff ff       	jmpq   22880 <_vfprintf_r+0xf80>
   22b38:	0f 1f 84 00 00 00 00 	nopl   0x0(%rax,%rax,1)
   22b3f:	00 
   22b40:	41 83 cd 08          	or     $0x8,%r13d
   22b44:	45 89 e4             	mov    %r12d,%r12d
   22b47:	43 0f b6 04 27       	movzbl (%r15,%r12,1),%eax
   22b4c:	e9 ef f1 ff ff       	jmpq   21d40 <_vfprintf_r+0x440>
   22b51:	66 66 66 66 66 66 2e 	data32 data32 data32 data32 data32 nopw %cs:0x0(%rax,%rax,1)
   22b58:	0f 1f 84 00 00 00 00 
   22b5f:	00 
   22b60:	48 8b 94 24 c8 00 00 	mov    0xc8(%rsp),%rdx
   22b67:	00 
   22b68:	89 84 24 f8 00 00 00 	mov    %eax,0xf8(%rsp)
   22b6f:	89 d2                	mov    %edx,%edx
   22b71:	41 8b 04 17          	mov    (%r15,%rdx,1),%eax
   22b75:	83 f8 2f             	cmp    $0x2f,%eax
   22b78:	0f 87 82 23 00 00    	ja     24f00 <_vfprintf_r+0x3600>
   22b7e:	66 90                	xchg   %ax,%ax
   22b80:	48 89 d1             	mov    %rdx,%rcx
   22b83:	89 d2                	mov    %edx,%edx
   22b85:	41 8b 54 17 0c       	mov    0xc(%r15,%rdx,1),%edx
   22b8a:	01 c2                	add    %eax,%edx
   22b8c:	83 c0 08             	add    $0x8,%eax
   22b8f:	89 c9                	mov    %ecx,%ecx
   22b91:	41 89 04 0f          	mov    %eax,(%r15,%rcx,1)
   22b95:	66 66 2e 0f 1f 84 00 	data32 nopw %cs:0x0(%rax,%rax,1)
   22b9c:	00 00 00 00 
   22ba0:	89 d2                	mov    %edx,%edx
   22ba2:	41 8b 14 17          	mov    (%r15,%rdx,1),%edx
   22ba6:	c6 84 24 8f 02 00 00 	movb   $0x0,0x28f(%rsp)
   22bad:	00 
   22bae:	48 85 d2             	test   %rdx,%rdx
   22bb1:	48 89 94 24 a8 00 00 	mov    %rdx,0xa8(%rsp)
   22bb8:	00 
   22bb9:	0f 84 61 34 00 00    	je     26020 <_vfprintf_r+0x4720>
   22bbf:	90                   	nop
   22bc0:	83 bc 24 f8 00 00 00 	cmpl   $0x53,0xf8(%rsp)
   22bc7:	53 
   22bc8:	0f 84 f2 28 00 00    	je     254c0 <_vfprintf_r+0x3bc0>
   22bce:	44 89 e9             	mov    %r13d,%ecx
   22bd1:	83 e1 10             	and    $0x10,%ecx
   22bd4:	0f 85 e6 28 00 00    	jne    254c0 <_vfprintf_r+0x3bc0>
   22bda:	45 85 d2             	test   %r10d,%r10d
   22bdd:	0f 1f 00             	nopl   (%rax)
   22be0:	0f 88 ba 2e 00 00    	js     25aa0 <_vfprintf_r+0x41a0>
   22be6:	8b bc 24 a8 00 00 00 	mov    0xa8(%rsp),%edi
   22bed:	44 89 d2             	mov    %r10d,%edx
   22bf0:	31 f6                	xor    %esi,%esi
   22bf2:	89 8c 24 90 00 00 00 	mov    %ecx,0x90(%rsp)
   22bf9:	0f 1f 80 00 00 00 00 	nopl   0x0(%rax)
   22c00:	44 89 94 24 88 00 00 	mov    %r10d,0x88(%rsp)
   22c07:	00 
   22c08:	0f 1f 40 00          	nopl   0x0(%rax)
   22c0c:	66 66 66 66 66 66 2e 	data32 data32 data32 data32 data32 nopw %cs:0x0(%rax,%rax,1)
   22c13:	0f 1f 84 00 00 00 00 
   22c1a:	00 
   22c1b:	e8 60 bb 00 00       	callq  2e780 <memchr>
   22c20:	89 c0                	mov    %eax,%eax
   22c22:	8b 8c 24 90 00 00 00 	mov    0x90(%rsp),%ecx
   22c29:	44 8b 94 24 88 00 00 	mov    0x88(%rsp),%r10d
   22c30:	00 
   22c31:	48 85 c0             	test   %rax,%rax
   22c34:	0f 84 c6 44 00 00    	je     27100 <_vfprintf_r+0x5800>
   22c3a:	66 0f 1f 44 00 00    	nopw   0x0(%rax,%rax,1)
   22c40:	2b 84 24 a8 00 00 00 	sub    0xa8(%rsp),%eax
   22c47:	41 39 c2             	cmp    %eax,%r10d
   22c4a:	89 84 24 c4 00 00 00 	mov    %eax,0xc4(%rsp)
   22c51:	0f 8d a9 37 00 00    	jge    26400 <_vfprintf_r+0x4b00>
   22c57:	45 85 d2             	test   %r10d,%r10d
   22c5a:	66 0f 1f 44 00 00    	nopw   0x0(%rax,%rax,1)
   22c60:	0f b6 84 24 8f 02 00 	movzbl 0x28f(%rsp),%eax
   22c67:	00 
   22c68:	44 89 94 24 c4 00 00 	mov    %r10d,0xc4(%rsp)
   22c6f:	00 
   22c70:	41 0f 49 ca          	cmovns %r10d,%ecx
   22c74:	89 8c 24 b0 00 00 00 	mov    %ecx,0xb0(%rsp)
   22c7b:	e9 e0 29 00 00       	jmpq   25660 <_vfprintf_r+0x3d60>
   22c80:	89 84 24 f8 00 00 00 	mov    %eax,0xf8(%rsp)
   22c87:	41 83 cd 10          	or     $0x10,%r13d
   22c8b:	66 0f 1f 44 00 00    	nopw   0x0(%rax,%rax,1)
   22c91:	66 66 66 66 66 66 2e 	data32 data32 data32 data32 data32 nopw %cs:0x0(%rax,%rax,1)
   22c98:	0f 1f 84 00 00 00 00 
   22c9f:	00 
   22ca0:	41 f6 c5 20          	test   $0x20,%r13b
   22ca4:	0f 84 f6 11 00 00    	je     23ea0 <_vfprintf_r+0x25a0>
   22caa:	48 8b 8c 24 c8 00 00 	mov    0xc8(%rsp),%rcx
   22cb1:	00 
   22cb2:	89 c9                	mov    %ecx,%ecx
   22cb4:	41 8b 04 0f          	mov    (%r15,%rcx,1),%eax
   22cb8:	83 f8 2f             	cmp    $0x2f,%eax
   22cbb:	0f 1f 44 00 00       	nopl   0x0(%rax,%rax,1)
   22cc0:	0f 87 7a 20 00 00    	ja     24d40 <_vfprintf_r+0x3440>
   22cc6:	89 c9                	mov    %ecx,%ecx
   22cc8:	41 8b 54 0f 0c       	mov    0xc(%r15,%rcx,1),%edx
   22ccd:	01 c2                	add    %eax,%edx
   22ccf:	83 c0 08             	add    $0x8,%eax
   22cd2:	89 c9                	mov    %ecx,%ecx
   22cd4:	41 89 04 0f          	mov    %eax,(%r15,%rcx,1)
   22cd8:	0f 1f 84 00 00 00 00 	nopl   0x0(%rax,%rax,1)
   22cdf:	00 
   22ce0:	89 d2                	mov    %edx,%edx
   22ce2:	49 8b 0c 17          	mov    (%r15,%rdx,1),%rcx
   22ce6:	b8 01 00 00 00       	mov    $0x1,%eax
   22ceb:	48 85 c9             	test   %rcx,%rcx
   22cee:	40 0f 95 c6          	setne  %sil
   22cf2:	e9 69 fb ff ff       	jmpq   22860 <_vfprintf_r+0xf60>
   22cf7:	66 0f 1f 84 00 00 00 	nopw   0x0(%rax,%rax,1)
   22cfe:	00 00 
   22d00:	41 f6 c5 20          	test   $0x20,%r13b
   22d04:	89 84 24 f8 00 00 00 	mov    %eax,0xf8(%rsp)
   22d0b:	48 c7 84 24 38 01 00 	movq   $0x100202c4,0x138(%rsp)
   22d12:	00 c4 02 02 10 
   22d17:	0f 84 03 02 00 00    	je     22f20 <_vfprintf_r+0x1620>
   22d1d:	0f 1f 00             	nopl   (%rax)
   22d20:	48 8b 94 24 c8 00 00 	mov    0xc8(%rsp),%rdx
   22d27:	00 
   22d28:	89 d2                	mov    %edx,%edx
   22d2a:	41 8b 04 17          	mov    (%r15,%rdx,1),%eax
   22d2e:	83 f8 2f             	cmp    $0x2f,%eax
   22d31:	0f 87 e9 21 00 00    	ja     24f20 <_vfprintf_r+0x3620>
   22d37:	48 89 d1             	mov    %rdx,%rcx
   22d3a:	66 0f 1f 44 00 00    	nopw   0x0(%rax,%rax,1)
   22d40:	89 d2                	mov    %edx,%edx
   22d42:	41 8b 54 17 0c       	mov    0xc(%r15,%rdx,1),%edx
   22d47:	01 c2                	add    %eax,%edx
   22d49:	83 c0 08             	add    $0x8,%eax
   22d4c:	89 c9                	mov    %ecx,%ecx
   22d4e:	41 89 04 0f          	mov    %eax,(%r15,%rcx,1)
   22d52:	66 66 66 66 66 2e 0f 	data32 data32 data32 data32 nopw %cs:0x0(%rax,%rax,1)
   22d59:	1f 84 00 00 00 00 00 
   22d60:	89 d2                	mov    %edx,%edx
   22d62:	49 8b 0c 17          	mov    (%r15,%rdx,1),%rcx
   22d66:	66 66 2e 0f 1f 84 00 	data32 nopw %cs:0x0(%rax,%rax,1)
   22d6d:	00 00 00 00 
   22d71:	66 66 66 66 66 66 2e 	data32 data32 data32 data32 data32 nopw %cs:0x0(%rax,%rax,1)
   22d78:	0f 1f 84 00 00 00 00 
   22d7f:	00 
   22d80:	48 85 c9             	test   %rcx,%rcx
   22d83:	40 0f 95 c6          	setne  %sil
   22d87:	74 37                	je     22dc0 <_vfprintf_r+0x14c0>
   22d89:	41 f6 c5 01          	test   $0x1,%r13b
   22d8d:	74 31                	je     22dc0 <_vfprintf_r+0x14c0>
   22d8f:	0f b6 84 24 f8 00 00 	movzbl 0xf8(%rsp),%eax
   22d96:	00 
   22d97:	c6 84 24 80 02 00 00 	movb   $0x30,0x280(%rsp)
   22d9e:	30 
   22d9f:	90                   	nop
   22da0:	41 83 cd 02          	or     $0x2,%r13d
   22da4:	88 84 24 81 02 00 00 	mov    %al,0x281(%rsp)
   22dab:	66 0f 1f 44 00 00    	nopw   0x0(%rax,%rax,1)
   22db1:	66 66 66 66 66 66 2e 	data32 data32 data32 data32 data32 nopw %cs:0x0(%rax,%rax,1)
   22db8:	0f 1f 84 00 00 00 00 
   22dbf:	00 
   22dc0:	41 81 e5 ff fb ff ff 	and    $0xfffffbff,%r13d
   22dc7:	b8 02 00 00 00       	mov    $0x2,%eax
   22dcc:	e9 8f fa ff ff       	jmpq   22860 <_vfprintf_r+0xf60>
   22dd1:	66 66 66 66 66 66 2e 	data32 data32 data32 data32 data32 nopw %cs:0x0(%rax,%rax,1)
   22dd8:	0f 1f 84 00 00 00 00 
   22ddf:	00 
   22de0:	45 89 e4             	mov    %r12d,%r12d
   22de3:	43 0f be 04 27       	movsbl (%r15,%r12,1),%eax
   22de8:	41 83 c4 01          	add    $0x1,%r12d
   22dec:	83 f8 2a             	cmp    $0x2a,%eax
   22def:	0f 84 2b 44 00 00    	je     27220 <_vfprintf_r+0x5920>
   22df5:	8d 70 d0             	lea    -0x30(%rax),%esi
   22df8:	31 c9                	xor    %ecx,%ecx
   22dfa:	45 31 d2             	xor    %r10d,%r10d
   22dfd:	83 fe 09             	cmp    $0x9,%esi
   22e00:	0f 87 5a ef ff ff    	ja     21d60 <_vfprintf_r+0x460>
   22e06:	66 66 2e 0f 1f 84 00 	data32 nopw %cs:0x0(%rax,%rax,1)
   22e0d:	00 00 00 00 
   22e11:	66 66 66 66 66 66 2e 	data32 data32 data32 data32 data32 nopw %cs:0x0(%rax,%rax,1)
   22e18:	0f 1f 84 00 00 00 00 
   22e1f:	00 
   22e20:	45 89 e4             	mov    %r12d,%r12d
   22e23:	43 0f be 04 27       	movsbl (%r15,%r12,1),%eax
   22e28:	8d 0c 89             	lea    (%rcx,%rcx,4),%ecx
   22e2b:	41 83 c4 01          	add    $0x1,%r12d
   22e2f:	8d 0c 4e             	lea    (%rsi,%rcx,2),%ecx
   22e32:	8d 70 d0             	lea    -0x30(%rax),%esi
   22e35:	83 fe 09             	cmp    $0x9,%esi
   22e38:	76 e6                	jbe    22e20 <_vfprintf_r+0x1520>
   22e3a:	85 c9                	test   %ecx,%ecx
   22e3c:	41 89 d2             	mov    %edx,%r10d
   22e3f:	90                   	nop
   22e40:	44 0f 49 d1          	cmovns %ecx,%r10d
   22e44:	e9 17 ef ff ff       	jmpq   21d60 <_vfprintf_r+0x460>
   22e49:	0f 1f 84 00 00 00 00 	nopl   0x0(%rax,%rax,1)
   22e50:	00 
   22e51:	66 66 66 66 66 66 2e 	data32 data32 data32 data32 data32 nopw %cs:0x0(%rax,%rax,1)
   22e58:	0f 1f 84 00 00 00 00 
   22e5f:	00 
   22e60:	89 84 24 f8 00 00 00 	mov    %eax,0xf8(%rsp)
   22e67:	41 83 cd 10          	or     $0x10,%r13d
   22e6b:	66 0f 1f 44 00 00    	nopw   0x0(%rax,%rax,1)
   22e71:	66 66 66 66 66 66 2e 	data32 data32 data32 data32 data32 nopw %cs:0x0(%rax,%rax,1)
   22e78:	0f 1f 84 00 00 00 00 
   22e7f:	00 
   22e80:	41 f6 c5 20          	test   $0x20,%r13b
   22e84:	0f 84 d6 10 00 00    	je     23f60 <_vfprintf_r+0x2660>
   22e8a:	48 8b 8c 24 c8 00 00 	mov    0xc8(%rsp),%rcx
   22e91:	00 
   22e92:	89 c9                	mov    %ecx,%ecx
   22e94:	41 8b 04 0f          	mov    (%r15,%rcx,1),%eax
   22e98:	83 f8 2f             	cmp    $0x2f,%eax
   22e9b:	0f 1f 44 00 00       	nopl   0x0(%rax,%rax,1)
   22ea0:	0f 87 ba 1f 00 00    	ja     24e60 <_vfprintf_r+0x3560>
   22ea6:	89 c9                	mov    %ecx,%ecx
   22ea8:	41 8b 54 0f 0c       	mov    0xc(%r15,%rcx,1),%edx
   22ead:	01 c2                	add    %eax,%edx
   22eaf:	83 c0 08             	add    $0x8,%eax
   22eb2:	89 c9                	mov    %ecx,%ecx
   22eb4:	41 89 04 0f          	mov    %eax,(%r15,%rcx,1)
   22eb8:	0f 1f 84 00 00 00 00 	nopl   0x0(%rax,%rax,1)
   22ebf:	00 
   22ec0:	89 d2                	mov    %edx,%edx
   22ec2:	49 8b 0c 17          	mov    (%r15,%rdx,1),%rcx
   22ec6:	66 66 2e 0f 1f 84 00 	data32 nopw %cs:0x0(%rax,%rax,1)
   22ecd:	00 00 00 00 
   22ed1:	66 66 66 66 66 66 2e 	data32 data32 data32 data32 data32 nopw %cs:0x0(%rax,%rax,1)
   22ed8:	0f 1f 84 00 00 00 00 
   22edf:	00 
   22ee0:	41 81 e5 ff fb ff ff 	and    $0xfffffbff,%r13d
   22ee7:	48 85 c9             	test   %rcx,%rcx
   22eea:	40 0f 95 c6          	setne  %sil
   22eee:	31 c0                	xor    %eax,%eax
   22ef0:	e9 6b f9 ff ff       	jmpq   22860 <_vfprintf_r+0xf60>
   22ef5:	66 66 2e 0f 1f 84 00 	data32 nopw %cs:0x0(%rax,%rax,1)
   22efc:	00 00 00 00 
   22f00:	41 f6 c5 20          	test   $0x20,%r13b
   22f04:	89 84 24 f8 00 00 00 	mov    %eax,0xf8(%rsp)
   22f0b:	48 c7 84 24 38 01 00 	movq   $0x100202e5,0x138(%rsp)
   22f12:	00 e5 02 02 10 
   22f17:	0f 85 03 fe ff ff    	jne    22d20 <_vfprintf_r+0x1420>
   22f1d:	0f 1f 00             	nopl   (%rax)
   22f20:	41 f6 c5 10          	test   $0x10,%r13b
   22f24:	0f 84 96 20 00 00    	je     24fc0 <_vfprintf_r+0x36c0>
   22f2a:	48 8b 94 24 c8 00 00 	mov    0xc8(%rsp),%rdx
   22f31:	00 
   22f32:	89 d2                	mov    %edx,%edx
   22f34:	41 8b 04 17          	mov    (%r15,%rdx,1),%eax
   22f38:	83 f8 2f             	cmp    $0x2f,%eax
   22f3b:	0f 1f 44 00 00       	nopl   0x0(%rax,%rax,1)
   22f40:	0f 87 ba 2a 00 00    	ja     25a00 <_vfprintf_r+0x4100>
   22f46:	48 89 d1             	mov    %rdx,%rcx
   22f49:	89 d2                	mov    %edx,%edx
   22f4b:	41 8b 54 17 0c       	mov    0xc(%r15,%rdx,1),%edx
   22f50:	01 c2                	add    %eax,%edx
   22f52:	83 c0 08             	add    $0x8,%eax
   22f55:	89 c9                	mov    %ecx,%ecx
   22f57:	41 89 04 0f          	mov    %eax,(%r15,%rcx,1)
   22f5b:	0f 1f 44 00 00       	nopl   0x0(%rax,%rax,1)
   22f60:	89 d2                	mov    %edx,%edx
   22f62:	41 8b 0c 17          	mov    (%r15,%rdx,1),%ecx
   22f66:	e9 15 fe ff ff       	jmpq   22d80 <_vfprintf_r+0x1480>
   22f6b:	66 0f 1f 44 00 00    	nopw   0x0(%rax,%rax,1)
   22f71:	66 66 66 66 66 66 2e 	data32 data32 data32 data32 data32 nopw %cs:0x0(%rax,%rax,1)
   22f78:	0f 1f 84 00 00 00 00 
   22f7f:	00 
   22f80:	80 bc 24 8f 02 00 00 	cmpb   $0x0,0x28f(%rsp)
   22f87:	00 
   22f88:	0f 85 d2 f5 ff ff    	jne    22560 <_vfprintf_r+0xc60>
   22f8e:	c6 84 24 8f 02 00 00 	movb   $0x20,0x28f(%rsp)
   22f95:	20 
   22f96:	45 89 e4             	mov    %r12d,%r12d
   22f99:	43 0f b6 04 27       	movzbl (%r15,%r12,1),%eax
   22f9e:	66 90                	xchg   %ax,%ax
   22fa0:	e9 9b ed ff ff       	jmpq   21d40 <_vfprintf_r+0x440>
   22fa5:	66 66 66 2e 0f 1f 84 	data32 data32 nopw %cs:0x0(%rax,%rax,1)
   22fac:	00 00 00 00 00 
   22fb1:	66 66 66 66 66 66 2e 	data32 data32 data32 data32 data32 nopw %cs:0x0(%rax,%rax,1)
   22fb8:	0f 1f 84 00 00 00 00 
   22fbf:	00 
   22fc0:	48 8b 94 24 c8 00 00 	mov    0xc8(%rsp),%rdx
   22fc7:	00 
   22fc8:	89 84 24 f8 00 00 00 	mov    %eax,0xf8(%rsp)
   22fcf:	89 d2                	mov    %edx,%edx
   22fd1:	41 8b 44 17 04       	mov    0x4(%r15,%rdx,1),%eax
   22fd6:	3d af 00 00 00       	cmp    $0xaf,%eax
   22fdb:	0f 1f 44 00 00       	nopl   0x0(%rax,%rax,1)
   22fe0:	0f 87 5a 24 00 00    	ja     25440 <_vfprintf_r+0x3b40>
   22fe6:	48 89 d1             	mov    %rdx,%rcx
   22fe9:	89 d2                	mov    %edx,%edx
   22feb:	41 8b 54 17 0c       	mov    0xc(%r15,%rdx,1),%edx
   22ff0:	01 c2                	add    %eax,%edx
   22ff2:	83 c0 10             	add    $0x10,%eax
   22ff5:	89 c9                	mov    %ecx,%ecx
   22ff7:	41 89 44 0f 04       	mov    %eax,0x4(%r15,%rcx,1)
   22ffc:	0f 1f 40 00          	nopl   0x0(%rax)
   23000:	89 d2                	mov    %edx,%edx
   23002:	f2 41 0f 10 04 17    	movsd  (%r15,%rdx,1),%xmm0
   23008:	44 89 94 24 88 00 00 	mov    %r10d,0x88(%rsp)
   2300f:	00 
   23010:	f2 0f 11 84 24 28 01 	movsd  %xmm0,0x128(%rsp)
   23017:	00 00 
   23019:	0f 1f 80 00 00 00 00 	nopl   0x0(%rax)
   23020:	f2 0f 11 84 24 b0 00 	movsd  %xmm0,0xb0(%rsp)
   23027:	00 00 
   23029:	f2 0f 10 84 24 28 01 	movsd  0x128(%rsp),%xmm0
   23030:	00 00 
   23032:	66 0f 1f 84 00 00 00 	nopw   0x0(%rax,%rax,1)
   23039:	00 00 
   2303b:	e8 e0 d2 00 00       	callq  30320 <__fpclassifyd>
   23040:	83 f8 01             	cmp    $0x1,%eax
   23043:	44 8b 94 24 88 00 00 	mov    0x88(%rsp),%r10d
   2304a:	00 
   2304b:	0f 85 ef 1f 00 00    	jne    25040 <_vfprintf_r+0x3740>
   23051:	f2 0f 10 8c 24 28 01 	movsd  0x128(%rsp),%xmm1
   23058:	00 00 
   2305a:	66 0f 1f 44 00 00    	nopw   0x0(%rax,%rax,1)
   23060:	66 0f 2e 0d 98 d5 ff 	ucomisd 0xfffd598(%rip),%xmm1        # 10020600 <blanks.4412+0x10>
   23067:	0f 
   23068:	0f 82 d2 29 00 00    	jb     25a40 <_vfprintf_r+0x4140>
   2306e:	0f 1f 00             	nopl   (%rax)
   23071:	66 66 66 66 66 66 2e 	data32 data32 data32 data32 data32 nopw %cs:0x0(%rax,%rax,1)
   23078:	0f 1f 84 00 00 00 00 
   2307f:	00 
   23080:	83 bc 24 f8 00 00 00 	cmpl   $0x47,0xf8(%rsp)
   23087:	47 
   23088:	48 c7 84 24 a8 00 00 	movq   $0x100202d5,0xa8(%rsp)
   2308f:	00 d5 02 02 10 
   23094:	b8 d9 02 02 10       	mov    $0x100202d9,%eax
   23099:	0f 1f 80 00 00 00 00 	nopl   0x0(%rax)
   230a0:	48 0f 4e 84 24 a8 00 	cmovle 0xa8(%rsp),%rax
   230a7:	00 00 
   230a9:	c7 84 24 b0 00 00 00 	movl   $0x3,0xb0(%rsp)
   230b0:	03 00 00 00 
   230b4:	41 80 e5 7f          	and    $0x7f,%r13b
   230b8:	0f 1f 84 00 00 00 00 	nopl   0x0(%rax,%rax,1)
   230bf:	00 
   230c0:	48 c7 84 24 e0 00 00 	movq   $0x0,0xe0(%rsp)
   230c7:	00 00 00 00 00 
   230cc:	c7 84 24 c4 00 00 00 	movl   $0x3,0xc4(%rsp)
   230d3:	03 00 00 00 
   230d7:	66 0f 1f 84 00 00 00 	nopw   0x0(%rax,%rax,1)
   230de:	00 00 
   230e0:	c7 84 24 fc 00 00 00 	movl   $0x0,0xfc(%rsp)
   230e7:	00 00 00 00 
   230eb:	c7 84 24 08 01 00 00 	movl   $0x0,0x108(%rsp)
   230f2:	00 00 00 00 
   230f6:	66 2e 0f 1f 84 00 00 	nopw   %cs:0x0(%rax,%rax,1)
   230fd:	00 00 00 
   23100:	c7 84 24 20 01 00 00 	movl   $0x0,0x120(%rsp)
   23107:	00 00 00 00 
   2310b:	c7 84 24 1c 01 00 00 	movl   $0x0,0x11c(%rsp)
   23112:	00 00 00 00 
   23116:	48 89 84 24 a8 00 00 	mov    %rax,0xa8(%rsp)
   2311d:	00 
   2311e:	66 90                	xchg   %ax,%ax
   23120:	0f b6 84 24 8f 02 00 	movzbl 0x28f(%rsp),%eax
   23127:	00 
   23128:	e9 93 f8 ff ff       	jmpq   229c0 <_vfprintf_r+0x10c0>
   2312d:	0f 1f 40 00          	nopl   0x0(%rax)
   23131:	66 66 66 66 66 66 2e 	data32 data32 data32 data32 data32 nopw %cs:0x0(%rax,%rax,1)
   23138:	0f 1f 84 00 00 00 00 
   2313f:	00 
   23140:	44 89 f7             	mov    %r14d,%edi
   23143:	89 94 24 a0 00 00 00 	mov    %edx,0xa0(%rsp)
   2314a:	44 89 94 24 88 00 00 	mov    %r10d,0x88(%rsp)
   23151:	00 
   23152:	66 0f 1f 84 00 00 00 	nopw   0x0(%rax,%rax,1)
   23159:	00 00 
   2315b:	e8 40 8d 00 00       	callq  2bea0 <_localeconv_r>
   23160:	89 c0                	mov    %eax,%eax
   23162:	89 c0                	mov    %eax,%eax
   23164:	41 8b 44 07 04       	mov    0x4(%r15,%rax,1),%eax
   23169:	89 c7                	mov    %eax,%edi
   2316b:	48 89 84 24 40 01 00 	mov    %rax,0x140(%rsp)
   23172:	00 
   23173:	0f 1f 84 00 00 00 00 	nopl   0x0(%rax,%rax,1)
   2317a:	00 
   2317b:	e8 20 dc 00 00       	callq  30da0 <strlen>
   23180:	44 89 f7             	mov    %r14d,%edi
   23183:	89 84 24 30 01 00 00 	mov    %eax,0x130(%rsp)
   2318a:	66 90                	xchg   %ax,%ax
   2318c:	66 66 66 66 66 66 2e 	data32 data32 data32 data32 data32 nopw %cs:0x0(%rax,%rax,1)
   23193:	0f 1f 84 00 00 00 00 
   2319a:	00 
   2319b:	e8 00 8d 00 00       	callq  2bea0 <_localeconv_r>
   231a0:	89 c0                	mov    %eax,%eax
   231a2:	8b 8c 24 30 01 00 00 	mov    0x130(%rsp),%ecx
   231a9:	8b 94 24 a0 00 00 00 	mov    0xa0(%rsp),%edx
   231b0:	89 c0                	mov    %eax,%eax
   231b2:	41 8b 44 07 08       	mov    0x8(%r15,%rax,1),%eax
   231b7:	44 8b 94 24 88 00 00 	mov    0x88(%rsp),%r10d
   231be:	00 
   231bf:	90                   	nop
   231c0:	85 c9                	test   %ecx,%ecx
   231c2:	48 89 84 24 e8 00 00 	mov    %rax,0xe8(%rsp)
   231c9:	00 
   231ca:	0f 84 90 f3 ff ff    	je     22560 <_vfprintf_r+0xc60>
   231d0:	48 85 c0             	test   %rax,%rax
   231d3:	0f 84 87 f3 ff ff    	je     22560 <_vfprintf_r+0xc60>
   231d9:	0f 1f 80 00 00 00 00 	nopl   0x0(%rax)
   231e0:	48 8b 8c 24 e8 00 00 	mov    0xe8(%rsp),%rcx
   231e7:	00 
   231e8:	89 c9                	mov    %ecx,%ecx
   231ea:	41 80 3c 0f 00       	cmpb   $0x0,(%r15,%rcx,1)
   231ef:	0f 84 6b f3 ff ff    	je     22560 <_vfprintf_r+0xc60>
   231f5:	41 81 cd 00 04 00 00 	or     $0x400,%r13d
   231fc:	0f 1f 40 00          	nopl   0x0(%rax)
   23200:	45 89 e4             	mov    %r12d,%r12d
   23203:	43 0f b6 04 27       	movzbl (%r15,%r12,1),%eax
   23208:	e9 33 eb ff ff       	jmpq   21d40 <_vfprintf_r+0x440>
   2320d:	0f 1f 40 00          	nopl   0x0(%rax)
   23211:	66 66 66 66 66 66 2e 	data32 data32 data32 data32 data32 nopw %cs:0x0(%rax,%rax,1)
   23218:	0f 1f 84 00 00 00 00 
   2321f:	00 
   23220:	c6 84 24 8f 02 00 00 	movb   $0x2b,0x28f(%rsp)
   23227:	2b 
   23228:	45 89 e4             	mov    %r12d,%r12d
   2322b:	43 0f b6 04 27       	movzbl (%r15,%r12,1),%eax
   23230:	e9 0b eb ff ff       	jmpq   21d40 <_vfprintf_r+0x440>
   23235:	66 66 2e 0f 1f 84 00 	data32 nopw %cs:0x0(%rax,%rax,1)
   2323c:	00 00 00 00 
   23240:	41 80 cd 80          	or     $0x80,%r13b
   23244:	45 89 e4             	mov    %r12d,%r12d
   23247:	43 0f b6 04 27       	movzbl (%r15,%r12,1),%eax
   2324c:	e9 ef ea ff ff       	jmpq   21d40 <_vfprintf_r+0x440>
   23251:	66 66 66 66 66 66 2e 	data32 data32 data32 data32 data32 nopw %cs:0x0(%rax,%rax,1)
   23258:	0f 1f 84 00 00 00 00 
   2325f:	00 
   23260:	31 c9                	xor    %ecx,%ecx
   23262:	66 66 66 66 66 66 2e 	data32 data32 data32 data32 data32 nopw %cs:0x0(%rax,%rax,1)
   23269:	0f 1f 84 00 00 00 00 
   23270:	00 
   23271:	66 66 66 66 66 66 2e 	data32 data32 data32 data32 data32 nopw %cs:0x0(%rax,%rax,1)
   23278:	0f 1f 84 00 00 00 00 
   2327f:	00 
   23280:	8d 0c 89             	lea    (%rcx,%rcx,4),%ecx
   23283:	8d 4c 48 d0          	lea    -0x30(%rax,%rcx,2),%ecx
   23287:	45 89 e4             	mov    %r12d,%r12d
   2328a:	43 0f be 04 27       	movsbl (%r15,%r12,1),%eax
   2328f:	41 83 c4 01          	add    $0x1,%r12d
   23293:	8d 70 d0             	lea    -0x30(%rax),%esi
   23296:	83 fe 09             	cmp    $0x9,%esi
   23299:	76 e5                	jbe    23280 <_vfprintf_r+0x1980>
   2329b:	0f 1f 44 00 00       	nopl   0x0(%rax,%rax,1)
   232a0:	89 8c 24 d4 00 00 00 	mov    %ecx,0xd4(%rsp)
   232a7:	e9 b4 ea ff ff       	jmpq   21d60 <_vfprintf_r+0x460>
   232ac:	0f 1f 44 00 00       	nopl   0x0(%rax,%rax,1)
   232b1:	66 66 66 66 66 66 2e 	data32 data32 data32 data32 data32 nopw %cs:0x0(%rax,%rax,1)
   232b8:	0f 1f 84 00 00 00 00 
   232bf:	00 
   232c0:	41 f6 c5 20          	test   $0x20,%r13b
   232c4:	0f 84 16 1b 00 00    	je     24de0 <_vfprintf_r+0x34e0>
   232ca:	48 8b 8c 24 c8 00 00 	mov    0xc8(%rsp),%rcx
   232d1:	00 
   232d2:	89 c9                	mov    %ecx,%ecx
   232d4:	41 8b 04 0f          	mov    (%r15,%rcx,1),%eax
   232d8:	83 f8 2f             	cmp    $0x2f,%eax
   232db:	0f 1f 44 00 00       	nopl   0x0(%rax,%rax,1)
   232e0:	0f 86 da 24 00 00    	jbe    257c0 <_vfprintf_r+0x3ec0>
   232e6:	48 8b b4 24 c8 00 00 	mov    0xc8(%rsp),%rsi
   232ed:	00 
   232ee:	89 f6                	mov    %esi,%esi
   232f0:	41 8b 54 37 08       	mov    0x8(%r15,%rsi,1),%edx
   232f5:	8d 42 08             	lea    0x8(%rdx),%eax
   232f8:	89 f6                	mov    %esi,%esi
   232fa:	41 89 44 37 08       	mov    %eax,0x8(%r15,%rsi,1)
   232ff:	90                   	nop
   23300:	89 d2                	mov    %edx,%edx
   23302:	41 8b 04 17          	mov    (%r15,%rdx,1),%eax
   23306:	48 63 94 24 d0 00 00 	movslq 0xd0(%rsp),%rdx
   2330d:	00 
   2330e:	89 c0                	mov    %eax,%eax
   23310:	49 89 14 07          	mov    %rdx,(%r15,%rax,1)
   23314:	e9 87 f1 ff ff       	jmpq   224a0 <_vfprintf_r+0xba0>
   23319:	0f 1f 80 00 00 00 00 	nopl   0x0(%rax)
   23320:	41 83 cd 01          	or     $0x1,%r13d
   23324:	45 89 e4             	mov    %r12d,%r12d
   23327:	43 0f b6 04 27       	movzbl (%r15,%r12,1),%eax
   2332c:	e9 0f ea ff ff       	jmpq   21d40 <_vfprintf_r+0x440>
   23331:	66 66 66 66 66 66 2e 	data32 data32 data32 data32 data32 nopw %cs:0x0(%rax,%rax,1)
   23338:	0f 1f 84 00 00 00 00 
   2333f:	00 
   23340:	45 89 e4             	mov    %r12d,%r12d
   23343:	43 0f b6 04 27       	movzbl (%r15,%r12,1),%eax
   23348:	3c 68                	cmp    $0x68,%al
   2334a:	0f 84 10 2a 00 00    	je     25d60 <_vfprintf_r+0x4460>
   23350:	41 83 cd 40          	or     $0x40,%r13d
   23354:	e9 e7 e9 ff ff       	jmpq   21d40 <_vfprintf_r+0x440>
   23359:	0f 1f 80 00 00 00 00 	nopl   0x0(%rax)
   23360:	89 84 24 f8 00 00 00 	mov    %eax,0xf8(%rsp)
   23367:	e9 34 f9 ff ff       	jmpq   22ca0 <_vfprintf_r+0x13a0>
   2336c:	0f 1f 44 00 00       	nopl   0x0(%rax,%rax,1)
   23371:	66 66 66 66 66 66 2e 	data32 data32 data32 data32 data32 nopw %cs:0x0(%rax,%rax,1)
   23378:	0f 1f 84 00 00 00 00 
   2337f:	00 
   23380:	89 84 24 f8 00 00 00 	mov    %eax,0xf8(%rsp)
   23387:	e9 34 f7 ff ff       	jmpq   22ac0 <_vfprintf_r+0x11c0>
   2338c:	0f 1f 44 00 00       	nopl   0x0(%rax,%rax,1)
   23391:	66 66 66 66 66 66 2e 	data32 data32 data32 data32 data32 nopw %cs:0x0(%rax,%rax,1)
   23398:	0f 1f 84 00 00 00 00 
   2339f:	00 
   233a0:	89 84 24 f8 00 00 00 	mov    %eax,0xf8(%rsp)
   233a7:	e9 d4 fa ff ff       	jmpq   22e80 <_vfprintf_r+0x1580>
   233ac:	0f 1f 44 00 00       	nopl   0x0(%rax,%rax,1)
   233b1:	66 66 66 66 66 66 2e 	data32 data32 data32 data32 data32 nopw %cs:0x0(%rax,%rax,1)
   233b8:	0f 1f 84 00 00 00 00 
   233bf:	00 
   233c0:	48 8b 84 24 b8 00 00 	mov    0xb8(%rsp),%rax
   233c7:	00 
   233c8:	89 c0                	mov    %eax,%eax
   233ca:	66 41 83 4c 07 0c 40 	orw    $0x40,0xc(%r15,%rax,1)
   233d1:	66 66 66 66 66 66 2e 	data32 data32 data32 data32 data32 nopw %cs:0x0(%rax,%rax,1)
   233d8:	0f 1f 84 00 00 00 00 
   233df:	00 
   233e0:	48 83 bc 24 e0 00 00 	cmpq   $0x0,0xe0(%rsp)
   233e7:	00 00 
   233e9:	0f 84 d1 07 00 00    	je     23bc0 <_vfprintf_r+0x22c0>
   233ef:	8b b4 24 e0 00 00 00 	mov    0xe0(%rsp),%esi
   233f6:	44 89 f7             	mov    %r14d,%edi
   233f9:	66 90                	xchg   %ax,%ax
   233fb:	e8 e0 63 01 00       	callq  397e0 <_free_r>
   23400:	48 8b 9c 24 b8 00 00 	mov    0xb8(%rsp),%rbx
   23407:	00 
   23408:	89 db                	mov    %ebx,%ebx
   2340a:	41 0f b7 44 1f 0c    	movzwl 0xc(%r15,%rbx,1),%eax
   23410:	90                   	nop
   23411:	66 66 66 66 66 66 2e 	data32 data32 data32 data32 data32 nopw %cs:0x0(%rax,%rax,1)
   23418:	0f 1f 84 00 00 00 00 
   2341f:	00 
   23420:	98                   	cwtl   
   23421:	f6 c4 02             	test   $0x2,%ah
   23424:	0f 84 56 07 00 00    	je     23b80 <_vfprintf_r+0x2280>
   2342a:	0f 1f 80 00 00 00 00 	nopl   0x0(%rax)
   23431:	66 66 66 66 66 66 2e 	data32 data32 data32 data32 data32 nopw %cs:0x0(%rax,%rax,1)
   23438:	0f 1f 84 00 00 00 00 
   2343f:	00 
   23440:	a8 40                	test   $0x40,%al
   23442:	0f 84 f8 f1 ff ff    	je     22640 <_vfprintf_r+0xd40>
   23448:	66 0f 1f 84 00 00 00 	nopw   0x0(%rax,%rax,1)
   2344f:	00 00 
   23451:	66 66 66 66 66 66 2e 	data32 data32 data32 data32 data32 nopw %cs:0x0(%rax,%rax,1)
   23458:	0f 1f 84 00 00 00 00 
   2345f:	00 
   23460:	c7 84 24 d0 00 00 00 	movl   $0xffffffff,0xd0(%rsp)
   23467:	ff ff ff ff 
   2346b:	e9 d0 f1 ff ff       	jmpq   22640 <_vfprintf_r+0xd40>
   23470:	90                   	nop
   23471:	66 66 66 66 66 66 2e 	data32 data32 data32 data32 data32 nopw %cs:0x0(%rax,%rax,1)
   23478:	0f 1f 84 00 00 00 00 
   2347f:	00 
   23480:	83 bc 24 f8 00 00 00 	cmpl   $0x65,0xf8(%rsp)
   23487:	65 
   23488:	0f 8e f2 03 00 00    	jle    23880 <_vfprintf_r+0x1f80>
   2348e:	f2 0f 10 84 24 28 01 	movsd  0x128(%rsp),%xmm0
   23495:	00 00 
   23497:	66 0f 2e 05 61 d1 ff 	ucomisd 0xfffd161(%rip),%xmm0        # 10020600 <blanks.4412+0x10>
   2349e:	0f 
   2349f:	90                   	nop
   234a0:	0f 85 3a 07 00 00    	jne    23be0 <_vfprintf_r+0x22e0>
   234a6:	0f 8a 34 07 00 00    	jp     23be0 <_vfprintf_r+0x22e0>
   234ac:	89 db                	mov    %ebx,%ebx
   234ae:	41 c7 44 1f 04 01 00 	movl   $0x1,0x4(%r15,%rbx,1)
   234b5:	00 00 
   234b7:	8b 84 24 14 02 00 00 	mov    0x214(%rsp),%eax
   234be:	66 90                	xchg   %ax,%ax
   234c0:	83 84 24 18 02 00 00 	addl   $0x1,0x218(%rsp)
   234c7:	01 
   234c8:	89 db                	mov    %ebx,%ebx
   234ca:	41 c7 04 1f 16 07 02 	movl   $0x10020716,(%r15,%rbx,1)
   234d1:	10 
   234d2:	83 c0 01             	add    $0x1,%eax
   234d5:	83 f8 07             	cmp    $0x7,%eax
   234d8:	89 84 24 14 02 00 00 	mov    %eax,0x214(%rsp)
   234df:	90                   	nop
   234e0:	0f 8f 5a 22 00 00    	jg     25740 <_vfprintf_r+0x3e40>
   234e6:	83 c3 08             	add    $0x8,%ebx
   234e9:	0f 1f 84 00 00 00 00 	nopl   0x0(%rax,%rax,1)
   234f0:	00 
   234f1:	66 66 66 66 66 66 2e 	data32 data32 data32 data32 data32 nopw %cs:0x0(%rax,%rax,1)
   234f8:	0f 1f 84 00 00 00 00 
   234ff:	00 
   23500:	8b 84 24 0c 01 00 00 	mov    0x10c(%rsp),%eax
   23507:	39 84 24 7c 02 00 00 	cmp    %eax,0x27c(%rsp)
   2350e:	7c 10                	jl     23520 <_vfprintf_r+0x1c20>
   23510:	41 f6 c5 01          	test   $0x1,%r13b
   23514:	0f 84 46 ed ff ff    	je     22260 <_vfprintf_r+0x960>
   2351a:	66 0f 1f 44 00 00    	nopw   0x0(%rax,%rax,1)
   23520:	8b 8c 24 24 01 00 00 	mov    0x124(%rsp),%ecx
   23527:	8b 94 24 10 01 00 00 	mov    0x110(%rsp),%edx
   2352e:	89 db                	mov    %ebx,%ebx
   23530:	41 89 4c 1f 04       	mov    %ecx,0x4(%r15,%rbx,1)
   23535:	8b 84 24 14 02 00 00 	mov    0x214(%rsp),%eax
   2353c:	0f 1f 40 00          	nopl   0x0(%rax)
   23540:	01 8c 24 18 02 00 00 	add    %ecx,0x218(%rsp)
   23547:	89 db                	mov    %ebx,%ebx
   23549:	41 89 14 1f          	mov    %edx,(%r15,%rbx,1)
   2354d:	83 c0 01             	add    $0x1,%eax
   23550:	83 f8 07             	cmp    $0x7,%eax
   23553:	89 84 24 14 02 00 00 	mov    %eax,0x214(%rsp)
   2355a:	0f 8f 20 28 00 00    	jg     25d80 <_vfprintf_r+0x4480>
   23560:	83 c3 08             	add    $0x8,%ebx
   23563:	66 66 66 66 66 2e 0f 	data32 data32 data32 data32 nopw %cs:0x0(%rax,%rax,1)
   2356a:	1f 84 00 00 00 00 00 
   23571:	66 66 66 66 66 66 2e 	data32 data32 data32 data32 data32 nopw %cs:0x0(%rax,%rax,1)
   23578:	0f 1f 84 00 00 00 00 
   2357f:	00 
   23580:	8b 8c 24 0c 01 00 00 	mov    0x10c(%rsp),%ecx
   23587:	83 e9 01             	sub    $0x1,%ecx
   2358a:	85 c9                	test   %ecx,%ecx
   2358c:	0f 8e ce ec ff ff    	jle    22260 <_vfprintf_r+0x960>
   23592:	83 f9 10             	cmp    $0x10,%ecx
   23595:	0f 8e 65 0b 00 00    	jle    24100 <_vfprintf_r+0x2800>
   2359b:	0f 1f 44 00 00       	nopl   0x0(%rax,%rax,1)
   235a0:	8d b4 24 10 02 00 00 	lea    0x210(%rsp),%esi
   235a7:	48 89 d8             	mov    %rbx,%rax
   235aa:	44 89 ac 24 a8 00 00 	mov    %r13d,0xa8(%rsp)
   235b1:	00 
   235b2:	89 cb                	mov    %ecx,%ebx
   235b4:	4d 89 e5             	mov    %r12,%r13
   235b7:	4c 8b a4 24 b8 00 00 	mov    0xb8(%rsp),%r12
   235be:	00 
   235bf:	90                   	nop
   235c0:	48 89 74 24 38       	mov    %rsi,0x38(%rsp)
   235c5:	eb 59                	jmp    23620 <_vfprintf_r+0x1d20>
   235c7:	66 2e 0f 1f 84 00 00 	nopw   %cs:0x0(%rax,%rax,1)
   235ce:	00 00 00 
   235d1:	66 66 66 66 66 66 2e 	data32 data32 data32 data32 data32 nopw %cs:0x0(%rax,%rax,1)
   235d8:	0f 1f 84 00 00 00 00 
   235df:	00 
   235e0:	83 c0 08             	add    $0x8,%eax
   235e3:	66 66 66 66 66 2e 0f 	data32 data32 data32 data32 nopw %cs:0x0(%rax,%rax,1)
   235ea:	1f 84 00 00 00 00 00 
   235f1:	66 66 66 66 66 66 2e 	data32 data32 data32 data32 data32 nopw %cs:0x0(%rax,%rax,1)
   235f8:	0f 1f 84 00 00 00 00 
   235ff:	00 
   23600:	83 eb 10             	sub    $0x10,%ebx
   23603:	83 fb 10             	cmp    $0x10,%ebx
   23606:	0f 8e b4 20 00 00    	jle    256c0 <_vfprintf_r+0x3dc0>
   2360c:	0f 1f 44 00 00       	nopl   0x0(%rax,%rax,1)
   23611:	66 66 66 66 66 66 2e 	data32 data32 data32 data32 data32 nopw %cs:0x0(%rax,%rax,1)
   23618:	0f 1f 84 00 00 00 00 
   2361f:	00 
   23620:	89 c0                	mov    %eax,%eax
   23622:	41 c7 44 07 04 10 00 	movl   $0x10,0x4(%r15,%rax,1)
   23629:	00 00 
   2362b:	8b 94 24 14 02 00 00 	mov    0x214(%rsp),%edx
   23632:	83 84 24 18 02 00 00 	addl   $0x10,0x218(%rsp)
   23639:	10 
   2363a:	66 0f 1f 44 00 00    	nopw   0x0(%rax,%rax,1)
   23640:	89 c0                	mov    %eax,%eax
   23642:	41 c7 04 07 e0 05 02 	movl   $0x100205e0,(%r15,%rax,1)
   23649:	10 
   2364a:	83 c2 01             	add    $0x1,%edx
   2364d:	83 fa 07             	cmp    $0x7,%edx
   23650:	89 94 24 14 02 00 00 	mov    %edx,0x214(%rsp)
   23657:	7e 87                	jle    235e0 <_vfprintf_r+0x1ce0>
   23659:	8b 54 24 38          	mov    0x38(%rsp),%edx
   2365d:	44 89 e6             	mov    %r12d,%esi
   23660:	44 89 f7             	mov    %r14d,%edi
   23663:	66 0f 1f 84 00 00 00 	nopw   0x0(%rax,%rax,1)
   2366a:	00 00 
   2366c:	66 66 66 66 66 66 2e 	data32 data32 data32 data32 data32 nopw %cs:0x0(%rax,%rax,1)
   23673:	0f 1f 84 00 00 00 00 
   2367a:	00 
   2367b:	e8 60 df 00 00       	callq  315e0 <__sprint_r>
   23680:	85 c0                	test   %eax,%eax
   23682:	0f 85 58 fd ff ff    	jne    233e0 <_vfprintf_r+0x1ae0>
   23688:	8d 84 24 d0 01 00 00 	lea    0x1d0(%rsp),%eax
   2368f:	e9 6c ff ff ff       	jmpq   23600 <_vfprintf_r+0x1d00>
   23694:	66 66 66 2e 0f 1f 84 	data32 data32 nopw %cs:0x0(%rax,%rax,1)
   2369b:	00 00 00 00 00 
   236a0:	85 c0                	test   %eax,%eax
   236a2:	75 3c                	jne    236e0 <_vfprintf_r+0x1de0>
   236a4:	41 f6 c5 01          	test   $0x1,%r13b
   236a8:	74 36                	je     236e0 <_vfprintf_r+0x1de0>
   236aa:	48 8b 8c 24 48 01 00 	mov    0x148(%rsp),%rcx
   236b1:	00 
   236b2:	48 89 8c 24 a8 00 00 	mov    %rcx,0xa8(%rsp)
   236b9:	00 
   236ba:	66 0f 1f 44 00 00    	nopw   0x0(%rax,%rax,1)
   236c0:	89 c9                	mov    %ecx,%ecx
   236c2:	41 c6 04 0f 30       	movb   $0x30,(%r15,%rcx,1)
   236c7:	c7 84 24 c4 00 00 00 	movl   $0x1,0xc4(%rsp)
   236ce:	01 00 00 00 
   236d2:	48 8b b4 24 e8 00 00 	mov    0xe8(%rsp),%rsi
   236d9:	00 
   236da:	e9 61 f2 ff ff       	jmpq   22940 <_vfprintf_r+0x1040>
   236df:	90                   	nop
   236e0:	48 8b b4 24 00 01 00 	mov    0x100(%rsp),%rsi
   236e7:	00 
   236e8:	c7 84 24 c4 00 00 00 	movl   $0x0,0xc4(%rsp)
   236ef:	00 00 00 00 
   236f3:	48 89 b4 24 a8 00 00 	mov    %rsi,0xa8(%rsp)
   236fa:	00 
   236fb:	0f 1f 44 00 00       	nopl   0x0(%rax,%rax,1)
   23700:	48 8b b4 24 e8 00 00 	mov    0xe8(%rsp),%rsi
   23707:	00 
   23708:	e9 33 f2 ff ff       	jmpq   22940 <_vfprintf_r+0x1040>
   2370d:	0f 1f 40 00          	nopl   0x0(%rax)
   23711:	66 66 66 66 66 66 2e 	data32 data32 data32 data32 data32 nopw %cs:0x0(%rax,%rax,1)
   23718:	0f 1f 84 00 00 00 00 
   2371f:	00 
   23720:	8b 8c 24 d4 00 00 00 	mov    0xd4(%rsp),%ecx
   23727:	2b 8c 24 b0 00 00 00 	sub    0xb0(%rsp),%ecx
   2372e:	85 c9                	test   %ecx,%ecx
   23730:	0f 8e 6a e9 ff ff    	jle    220a0 <_vfprintf_r+0x7a0>
   23736:	83 f9 10             	cmp    $0x10,%ecx
   23739:	0f 8e 01 01 00 00    	jle    23840 <_vfprintf_r+0x1f40>
   2373f:	90                   	nop
   23740:	8d 94 24 10 02 00 00 	lea    0x210(%rsp),%edx
   23747:	48 89 d8             	mov    %rbx,%rax
   2374a:	44 89 ac 24 d8 00 00 	mov    %r13d,0xd8(%rsp)
   23751:	00 
   23752:	89 cb                	mov    %ecx,%ebx
   23754:	4d 89 e5             	mov    %r12,%r13
   23757:	4c 8b a4 24 b8 00 00 	mov    0xb8(%rsp),%r12
   2375e:	00 
   2375f:	90                   	nop
   23760:	48 89 54 24 48       	mov    %rdx,0x48(%rsp)
   23765:	eb 39                	jmp    237a0 <_vfprintf_r+0x1ea0>
   23767:	66 2e 0f 1f 84 00 00 	nopw   %cs:0x0(%rax,%rax,1)
   2376e:	00 00 00 
   23771:	66 66 66 66 66 66 2e 	data32 data32 data32 data32 data32 nopw %cs:0x0(%rax,%rax,1)
   23778:	0f 1f 84 00 00 00 00 
   2377f:	00 
   23780:	83 eb 10             	sub    $0x10,%ebx
   23783:	83 c0 08             	add    $0x8,%eax
   23786:	83 fb 10             	cmp    $0x10,%ebx
   23789:	0f 8e 91 00 00 00    	jle    23820 <_vfprintf_r+0x1f20>
   2378f:	66 90                	xchg   %ax,%ax
   23791:	66 66 66 66 66 66 2e 	data32 data32 data32 data32 data32 nopw %cs:0x0(%rax,%rax,1)
   23798:	0f 1f 84 00 00 00 00 
   2379f:	00 
   237a0:	89 c0                	mov    %eax,%eax
   237a2:	41 c7 44 07 04 10 00 	movl   $0x10,0x4(%r15,%rax,1)
   237a9:	00 00 
   237ab:	8b 94 24 14 02 00 00 	mov    0x214(%rsp),%edx
   237b2:	83 84 24 18 02 00 00 	addl   $0x10,0x218(%rsp)
   237b9:	10 
   237ba:	66 0f 1f 44 00 00    	nopw   0x0(%rax,%rax,1)
   237c0:	89 c0                	mov    %eax,%eax
   237c2:	41 c7 04 07 e0 05 02 	movl   $0x100205e0,(%r15,%rax,1)
   237c9:	10 
   237ca:	83 c2 01             	add    $0x1,%edx
   237cd:	83 fa 07             	cmp    $0x7,%edx
   237d0:	89 94 24 14 02 00 00 	mov    %edx,0x214(%rsp)
   237d7:	7e a7                	jle    23780 <_vfprintf_r+0x1e80>
   237d9:	8b 54 24 48          	mov    0x48(%rsp),%edx
   237dd:	44 89 e6             	mov    %r12d,%esi
   237e0:	44 89 f7             	mov    %r14d,%edi
   237e3:	66 0f 1f 84 00 00 00 	nopw   0x0(%rax,%rax,1)
   237ea:	00 00 
   237ec:	66 66 66 66 66 66 2e 	data32 data32 data32 data32 data32 nopw %cs:0x0(%rax,%rax,1)
   237f3:	0f 1f 84 00 00 00 00 
   237fa:	00 
   237fb:	e8 e0 dd 00 00       	callq  315e0 <__sprint_r>
   23800:	85 c0                	test   %eax,%eax
   23802:	0f 85 d8 fb ff ff    	jne    233e0 <_vfprintf_r+0x1ae0>
   23808:	83 eb 10             	sub    $0x10,%ebx
   2380b:	8d 84 24 d0 01 00 00 	lea    0x1d0(%rsp),%eax
   23812:	83 fb 10             	cmp    $0x10,%ebx
   23815:	7f 89                	jg     237a0 <_vfprintf_r+0x1ea0>
   23817:	66 0f 1f 84 00 00 00 	nopw   0x0(%rax,%rax,1)
   2381e:	00 00 
   23820:	4d 89 ec             	mov    %r13,%r12
   23823:	44 8b ac 24 d8 00 00 	mov    0xd8(%rsp),%r13d
   2382a:	00 
   2382b:	89 d9                	mov    %ebx,%ecx
   2382d:	48 89 c3             	mov    %rax,%rbx
   23830:	90                   	nop
   23831:	66 66 66 66 66 66 2e 	data32 data32 data32 data32 data32 nopw %cs:0x0(%rax,%rax,1)
   23838:	0f 1f 84 00 00 00 00 
   2383f:	00 
   23840:	89 db                	mov    %ebx,%ebx
   23842:	41 89 4c 1f 04       	mov    %ecx,0x4(%r15,%rbx,1)
   23847:	8b 84 24 14 02 00 00 	mov    0x214(%rsp),%eax
   2384e:	01 8c 24 18 02 00 00 	add    %ecx,0x218(%rsp)
   23855:	89 db                	mov    %ebx,%ebx
   23857:	41 c7 04 1f e0 05 02 	movl   $0x100205e0,(%r15,%rbx,1)
   2385e:	10 
   2385f:	90                   	nop
   23860:	83 c0 01             	add    $0x1,%eax
   23863:	83 f8 07             	cmp    $0x7,%eax
   23866:	89 84 24 14 02 00 00 	mov    %eax,0x214(%rsp)
   2386d:	0f 8f ed 12 00 00    	jg     24b60 <_vfprintf_r+0x3260>
   23873:	83 c3 08             	add    $0x8,%ebx
   23876:	e9 25 e8 ff ff       	jmpq   220a0 <_vfprintf_r+0x7a0>
   2387b:	0f 1f 44 00 00       	nopl   0x0(%rax,%rax,1)
   23880:	83 bc 24 0c 01 00 00 	cmpl   $0x1,0x10c(%rsp)
   23887:	01 
   23888:	0f 8e 72 0e 00 00    	jle    24700 <_vfprintf_r+0x2e00>
   2388e:	0f 1f 00             	nopl   (%rax)
   23891:	66 66 66 66 66 66 2e 	data32 data32 data32 data32 data32 nopw %cs:0x0(%rax,%rax,1)
   23898:	0f 1f 84 00 00 00 00 
   2389f:	00 
   238a0:	89 db                	mov    %ebx,%ebx
   238a2:	41 c7 44 1f 04 01 00 	movl   $0x1,0x4(%r15,%rbx,1)
   238a9:	00 00 
   238ab:	8b 84 24 14 02 00 00 	mov    0x214(%rsp),%eax
   238b2:	8b 8c 24 a8 00 00 00 	mov    0xa8(%rsp),%ecx
   238b9:	0f 1f 80 00 00 00 00 	nopl   0x0(%rax)
   238c0:	83 84 24 18 02 00 00 	addl   $0x1,0x218(%rsp)
   238c7:	01 
   238c8:	83 c0 01             	add    $0x1,%eax
   238cb:	83 f8 07             	cmp    $0x7,%eax
   238ce:	89 db                	mov    %ebx,%ebx
   238d0:	41 89 0c 1f          	mov    %ecx,(%r15,%rbx,1)
   238d4:	89 84 24 14 02 00 00 	mov    %eax,0x214(%rsp)
   238db:	0f 1f 44 00 00       	nopl   0x0(%rax,%rax,1)
   238e0:	0f 8f 7a 0e 00 00    	jg     24760 <_vfprintf_r+0x2e60>
   238e6:	8d 43 08             	lea    0x8(%rbx),%eax
   238e9:	0f 1f 84 00 00 00 00 	nopl   0x0(%rax,%rax,1)
   238f0:	00 
   238f1:	66 66 66 66 66 66 2e 	data32 data32 data32 data32 data32 nopw %cs:0x0(%rax,%rax,1)
   238f8:	0f 1f 84 00 00 00 00 
   238ff:	00 
   23900:	8b b4 24 24 01 00 00 	mov    0x124(%rsp),%esi
   23907:	8b 9c 24 10 01 00 00 	mov    0x110(%rsp),%ebx
   2390e:	89 c0                	mov    %eax,%eax
   23910:	41 89 74 07 04       	mov    %esi,0x4(%r15,%rax,1)
   23915:	8b 94 24 14 02 00 00 	mov    0x214(%rsp),%edx
   2391c:	0f 1f 40 00          	nopl   0x0(%rax)
   23920:	01 b4 24 18 02 00 00 	add    %esi,0x218(%rsp)
   23927:	89 c0                	mov    %eax,%eax
   23929:	41 89 1c 07          	mov    %ebx,(%r15,%rax,1)
   2392d:	83 c2 01             	add    $0x1,%edx
   23930:	83 fa 07             	cmp    $0x7,%edx
   23933:	89 94 24 14 02 00 00 	mov    %edx,0x214(%rsp)
   2393a:	0f 8f 60 0e 00 00    	jg     247a0 <_vfprintf_r+0x2ea0>
   23940:	83 c0 08             	add    $0x8,%eax
   23943:	66 66 66 66 66 2e 0f 	data32 data32 data32 data32 nopw %cs:0x0(%rax,%rax,1)
   2394a:	1f 84 00 00 00 00 00 
   23951:	66 66 66 66 66 66 2e 	data32 data32 data32 data32 data32 nopw %cs:0x0(%rax,%rax,1)
   23958:	0f 1f 84 00 00 00 00 
   2395f:	00 
   23960:	f2 0f 10 84 24 28 01 	movsd  0x128(%rsp),%xmm0
   23967:	00 00 
   23969:	66 0f 2e 05 8f cc ff 	ucomisd 0xfffcc8f(%rip),%xmm0        # 10020600 <blanks.4412+0x10>
   23970:	0f 
   23971:	7a 0d                	jp     23980 <_vfprintf_r+0x2080>
   23973:	0f 84 47 06 00 00    	je     23fc0 <_vfprintf_r+0x26c0>
   23979:	0f 1f 80 00 00 00 00 	nopl   0x0(%rax)
   23980:	8b 94 24 a8 00 00 00 	mov    0xa8(%rsp),%edx
   23987:	8b 8c 24 0c 01 00 00 	mov    0x10c(%rsp),%ecx
   2398e:	83 c2 01             	add    $0x1,%edx
   23991:	89 c0                	mov    %eax,%eax
   23993:	41 89 14 07          	mov    %edx,(%r15,%rax,1)
   23997:	8b 94 24 0c 01 00 00 	mov    0x10c(%rsp),%edx
   2399e:	66 90                	xchg   %ax,%ax
   239a0:	83 ea 01             	sub    $0x1,%edx
   239a3:	89 c0                	mov    %eax,%eax
   239a5:	41 89 54 07 04       	mov    %edx,0x4(%r15,%rax,1)
   239aa:	8b 94 24 18 02 00 00 	mov    0x218(%rsp),%edx
   239b1:	8d 54 11 ff          	lea    -0x1(%rcx,%rdx,1),%edx
   239b5:	89 94 24 18 02 00 00 	mov    %edx,0x218(%rsp)
   239bc:	0f 1f 40 00          	nopl   0x0(%rax)
   239c0:	8b 94 24 14 02 00 00 	mov    0x214(%rsp),%edx
   239c7:	83 c2 01             	add    $0x1,%edx
   239ca:	83 fa 07             	cmp    $0x7,%edx
   239cd:	89 94 24 14 02 00 00 	mov    %edx,0x214(%rsp)
   239d4:	0f 8f c6 11 00 00    	jg     24ba0 <_vfprintf_r+0x32a0>
   239da:	83 c0 08             	add    $0x8,%eax
   239dd:	0f 1f 00             	nopl   (%rax)
   239e0:	8d 94 24 60 02 00 00 	lea    0x260(%rsp),%edx
   239e7:	89 c0                	mov    %eax,%eax
   239e9:	41 89 14 07          	mov    %edx,(%r15,%rax,1)
   239ed:	8b 94 24 34 01 00 00 	mov    0x134(%rsp),%edx
   239f4:	89 c0                	mov    %eax,%eax
   239f6:	41 89 54 07 04       	mov    %edx,0x4(%r15,%rax,1)
   239fb:	0f 1f 44 00 00       	nopl   0x0(%rax,%rax,1)
   23a00:	01 94 24 18 02 00 00 	add    %edx,0x218(%rsp)
   23a07:	66 2e 0f 1f 84 00 00 	nopw   %cs:0x0(%rax,%rax,1)
   23a0e:	00 00 00 
   23a11:	66 66 66 66 66 66 2e 	data32 data32 data32 data32 data32 nopw %cs:0x0(%rax,%rax,1)
   23a18:	0f 1f 84 00 00 00 00 
   23a1f:	00 
   23a20:	8b 94 24 14 02 00 00 	mov    0x214(%rsp),%edx
   23a27:	8d 58 08             	lea    0x8(%rax),%ebx
   23a2a:	83 c2 01             	add    $0x1,%edx
   23a2d:	83 fa 07             	cmp    $0x7,%edx
   23a30:	89 94 24 14 02 00 00 	mov    %edx,0x214(%rsp)
   23a37:	0f 8e 23 e8 ff ff    	jle    22260 <_vfprintf_r+0x960>
   23a3d:	0f 1f 00             	nopl   (%rax)
   23a40:	8b b4 24 b8 00 00 00 	mov    0xb8(%rsp),%esi
   23a47:	8d 94 24 10 02 00 00 	lea    0x210(%rsp),%edx
   23a4e:	44 89 f7             	mov    %r14d,%edi
   23a51:	66 2e 0f 1f 84 00 00 	nopw   %cs:0x0(%rax,%rax,1)
   23a58:	00 00 00 
   23a5b:	e8 80 db 00 00       	callq  315e0 <__sprint_r>
   23a60:	85 c0                	test   %eax,%eax
   23a62:	0f 85 78 f9 ff ff    	jne    233e0 <_vfprintf_r+0x1ae0>
   23a68:	8d 9c 24 d0 01 00 00 	lea    0x1d0(%rsp),%ebx
   23a6f:	e9 ec e7 ff ff       	jmpq   22260 <_vfprintf_r+0x960>
   23a74:	66 66 66 2e 0f 1f 84 	data32 data32 nopw %cs:0x0(%rax,%rax,1)
   23a7b:	00 00 00 00 00 
   23a80:	8b b4 24 b8 00 00 00 	mov    0xb8(%rsp),%esi
   23a87:	8d 94 24 10 02 00 00 	lea    0x210(%rsp),%edx
   23a8e:	44 89 f7             	mov    %r14d,%edi
   23a91:	66 2e 0f 1f 84 00 00 	nopw   %cs:0x0(%rax,%rax,1)
   23a98:	00 00 00 
   23a9b:	e8 40 db 00 00       	callq  315e0 <__sprint_r>
   23aa0:	85 c0                	test   %eax,%eax
   23aa2:	0f 84 b8 e9 ff ff    	je     22460 <_vfprintf_r+0xb60>
   23aa8:	e9 33 f9 ff ff       	jmpq   233e0 <_vfprintf_r+0x1ae0>
   23aad:	0f 1f 40 00          	nopl   0x0(%rax)
   23ab1:	66 66 66 66 66 66 2e 	data32 data32 data32 data32 data32 nopw %cs:0x0(%rax,%rax,1)
   23ab8:	0f 1f 84 00 00 00 00 
   23abf:	00 
   23ac0:	8b b4 24 b8 00 00 00 	mov    0xb8(%rsp),%esi
   23ac7:	8d 94 24 10 02 00 00 	lea    0x210(%rsp),%edx
   23ace:	44 89 f7             	mov    %r14d,%edi
   23ad1:	66 2e 0f 1f 84 00 00 	nopw   %cs:0x0(%rax,%rax,1)
   23ad8:	00 00 00 
   23adb:	e8 00 db 00 00       	callq  315e0 <__sprint_r>
   23ae0:	85 c0                	test   %eax,%eax
   23ae2:	0f 85 f8 f8 ff ff    	jne    233e0 <_vfprintf_r+0x1ae0>
   23ae8:	8d 9c 24 d0 01 00 00 	lea    0x1d0(%rsp),%ebx
   23aef:	e9 0c e7 ff ff       	jmpq   22200 <_vfprintf_r+0x900>
   23af4:	66 66 66 2e 0f 1f 84 	data32 data32 nopw %cs:0x0(%rax,%rax,1)
   23afb:	00 00 00 00 00 
   23b00:	8b b4 24 b8 00 00 00 	mov    0xb8(%rsp),%esi
   23b07:	8d 94 24 10 02 00 00 	lea    0x210(%rsp),%edx
   23b0e:	44 89 f7             	mov    %r14d,%edi
   23b11:	66 2e 0f 1f 84 00 00 	nopw   %cs:0x0(%rax,%rax,1)
   23b18:	00 00 00 
   23b1b:	e8 c0 da 00 00       	callq  315e0 <__sprint_r>
   23b20:	85 c0                	test   %eax,%eax
   23b22:	0f 85 b8 f8 ff ff    	jne    233e0 <_vfprintf_r+0x1ae0>
   23b28:	8d 9c 24 d0 01 00 00 	lea    0x1d0(%rsp),%ebx
   23b2f:	e9 ec e4 ff ff       	jmpq   22020 <_vfprintf_r+0x720>
   23b34:	66 66 66 2e 0f 1f 84 	data32 data32 nopw %cs:0x0(%rax,%rax,1)
   23b3b:	00 00 00 00 00 
   23b40:	8b b4 24 b8 00 00 00 	mov    0xb8(%rsp),%esi
   23b47:	8d 94 24 10 02 00 00 	lea    0x210(%rsp),%edx
   23b4e:	44 89 f7             	mov    %r14d,%edi
   23b51:	66 2e 0f 1f 84 00 00 	nopw   %cs:0x0(%rax,%rax,1)
   23b58:	00 00 00 
   23b5b:	e8 80 da 00 00       	callq  315e0 <__sprint_r>
   23b60:	85 c0                	test   %eax,%eax
   23b62:	0f 85 78 f8 ff ff    	jne    233e0 <_vfprintf_r+0x1ae0>
   23b68:	8d 9c 24 d0 01 00 00 	lea    0x1d0(%rsp),%ebx
   23b6f:	e9 0c e5 ff ff       	jmpq   22080 <_vfprintf_r+0x780>
   23b74:	66 66 66 2e 0f 1f 84 	data32 data32 nopw %cs:0x0(%rax,%rax,1)
   23b7b:	00 00 00 00 00 
   23b80:	8b bc 24 b8 00 00 00 	mov    0xb8(%rsp),%edi
   23b87:	83 c7 5c             	add    $0x5c,%edi
   23b8a:	66 90                	xchg   %ax,%ax
   23b8c:	66 66 66 66 66 66 2e 	data32 data32 data32 data32 data32 nopw %cs:0x0(%rax,%rax,1)
   23b93:	0f 1f 84 00 00 00 00 
   23b9a:	00 
   23b9b:	e8 e0 2e 01 00       	callq  36a80 <__local_lock_release_recursive>
   23ba0:	48 8b b4 24 b8 00 00 	mov    0xb8(%rsp),%rsi
   23ba7:	00 
   23ba8:	89 f6                	mov    %esi,%esi
   23baa:	41 0f bf 44 37 0c    	movswl 0xc(%r15,%rsi,1),%eax
   23bb0:	e9 8b f8 ff ff       	jmpq   23440 <_vfprintf_r+0x1b40>
   23bb5:	66 66 2e 0f 1f 84 00 	data32 nopw %cs:0x0(%rax,%rax,1)
   23bbc:	00 00 00 00 
   23bc0:	48 8b 8c 24 b8 00 00 	mov    0xb8(%rsp),%rcx
   23bc7:	00 
   23bc8:	89 c9                	mov    %ecx,%ecx
   23bca:	41 0f b7 44 0f 0c    	movzwl 0xc(%r15,%rcx,1),%eax
   23bd0:	e9 4b f8 ff ff       	jmpq   23420 <_vfprintf_r+0x1b20>
   23bd5:	66 66 2e 0f 1f 84 00 	data32 nopw %cs:0x0(%rax,%rax,1)
   23bdc:	00 00 00 00 
   23be0:	44 8b 84 24 7c 02 00 	mov    0x27c(%rsp),%r8d
   23be7:	00 
   23be8:	45 85 c0             	test   %r8d,%r8d
   23beb:	0f 8e 6f 1f 00 00    	jle    25b60 <_vfprintf_r+0x4260>
   23bf1:	8b 84 24 0c 01 00 00 	mov    0x10c(%rsp),%eax
   23bf8:	03 84 24 a8 00 00 00 	add    0xa8(%rsp),%eax
   23bff:	90                   	nop
   23c00:	41 89 c0             	mov    %eax,%r8d
   23c03:	44 2b 84 24 a8 00 00 	sub    0xa8(%rsp),%r8d
   23c0a:	00 
   23c0b:	48 89 84 24 d8 00 00 	mov    %rax,0xd8(%rsp)
   23c12:	00 
   23c13:	44 3b 84 24 1c 01 00 	cmp    0x11c(%rsp),%r8d
   23c1a:	00 
   23c1b:	0f 1f 44 00 00       	nopl   0x0(%rax,%rax,1)
   23c20:	89 84 24 c4 00 00 00 	mov    %eax,0xc4(%rsp)
   23c27:	44 0f 4f 84 24 1c 01 	cmovg  0x11c(%rsp),%r8d
   23c2e:	00 00 
   23c30:	45 85 c0             	test   %r8d,%r8d
   23c33:	7e 4b                	jle    23c80 <_vfprintf_r+0x2380>
   23c35:	89 db                	mov    %ebx,%ebx
   23c37:	45 89 44 1f 04       	mov    %r8d,0x4(%r15,%rbx,1)
   23c3c:	0f 1f 40 00          	nopl   0x0(%rax)
   23c40:	8b 84 24 14 02 00 00 	mov    0x214(%rsp),%eax
   23c47:	8b 94 24 a8 00 00 00 	mov    0xa8(%rsp),%edx
   23c4e:	44 01 84 24 18 02 00 	add    %r8d,0x218(%rsp)
   23c55:	00 
   23c56:	83 c0 01             	add    $0x1,%eax
   23c59:	83 f8 07             	cmp    $0x7,%eax
   23c5c:	0f 1f 40 00          	nopl   0x0(%rax)
   23c60:	89 db                	mov    %ebx,%ebx
   23c62:	41 89 14 1f          	mov    %edx,(%r15,%rbx,1)
   23c66:	89 84 24 14 02 00 00 	mov    %eax,0x214(%rsp)
   23c6d:	0f 8f 6d 23 00 00    	jg     25fe0 <_vfprintf_r+0x46e0>
   23c73:	83 c3 08             	add    $0x8,%ebx
   23c76:	66 2e 0f 1f 84 00 00 	nopw   %cs:0x0(%rax,%rax,1)
   23c7d:	00 00 00 
   23c80:	8b b4 24 1c 01 00 00 	mov    0x11c(%rsp),%esi
   23c87:	31 c9                	xor    %ecx,%ecx
   23c89:	45 85 c0             	test   %r8d,%r8d
   23c8c:	41 0f 49 c8          	cmovns %r8d,%ecx
   23c90:	29 ce                	sub    %ecx,%esi
   23c92:	85 f6                	test   %esi,%esi
   23c94:	89 f1                	mov    %esi,%ecx
   23c96:	0f 8e c4 04 00 00    	jle    24160 <_vfprintf_r+0x2860>
   23c9c:	83 fe 10             	cmp    $0x10,%esi
   23c9f:	90                   	nop
   23ca0:	0f 8e da 17 00 00    	jle    25480 <_vfprintf_r+0x3b80>
   23ca6:	8d 84 24 10 02 00 00 	lea    0x210(%rsp),%eax
   23cad:	44 89 ac 24 f4 00 00 	mov    %r13d,0xf4(%rsp)
   23cb4:	00 
   23cb5:	4d 89 e5             	mov    %r12,%r13
   23cb8:	4c 8b a4 24 b8 00 00 	mov    0xb8(%rsp),%r12
   23cbf:	00 
   23cc0:	48 89 44 24 28       	mov    %rax,0x28(%rsp)
   23cc5:	48 89 d8             	mov    %rbx,%rax
   23cc8:	89 f3                	mov    %esi,%ebx
   23cca:	eb 54                	jmp    23d20 <_vfprintf_r+0x2420>
   23ccc:	0f 1f 44 00 00       	nopl   0x0(%rax,%rax,1)
   23cd1:	66 66 66 66 66 66 2e 	data32 data32 data32 data32 data32 nopw %cs:0x0(%rax,%rax,1)
   23cd8:	0f 1f 84 00 00 00 00 
   23cdf:	00 
   23ce0:	83 c0 08             	add    $0x8,%eax
   23ce3:	66 66 66 66 66 2e 0f 	data32 data32 data32 data32 nopw %cs:0x0(%rax,%rax,1)
   23cea:	1f 84 00 00 00 00 00 
   23cf1:	66 66 66 66 66 66 2e 	data32 data32 data32 data32 data32 nopw %cs:0x0(%rax,%rax,1)
   23cf8:	0f 1f 84 00 00 00 00 
   23cff:	00 
   23d00:	83 eb 10             	sub    $0x10,%ebx
   23d03:	83 fb 10             	cmp    $0x10,%ebx
   23d06:	0f 8e 54 17 00 00    	jle    25460 <_vfprintf_r+0x3b60>
   23d0c:	0f 1f 44 00 00       	nopl   0x0(%rax,%rax,1)
   23d11:	66 66 66 66 66 66 2e 	data32 data32 data32 data32 data32 nopw %cs:0x0(%rax,%rax,1)
   23d18:	0f 1f 84 00 00 00 00 
   23d1f:	00 
   23d20:	89 c0                	mov    %eax,%eax
   23d22:	41 c7 44 07 04 10 00 	movl   $0x10,0x4(%r15,%rax,1)
   23d29:	00 00 
   23d2b:	8b 94 24 14 02 00 00 	mov    0x214(%rsp),%edx
   23d32:	83 84 24 18 02 00 00 	addl   $0x10,0x218(%rsp)
   23d39:	10 
   23d3a:	66 0f 1f 44 00 00    	nopw   0x0(%rax,%rax,1)
   23d40:	89 c0                	mov    %eax,%eax
   23d42:	41 c7 04 07 e0 05 02 	movl   $0x100205e0,(%r15,%rax,1)
   23d49:	10 
   23d4a:	83 c2 01             	add    $0x1,%edx
   23d4d:	83 fa 07             	cmp    $0x7,%edx
   23d50:	89 94 24 14 02 00 00 	mov    %edx,0x214(%rsp)
   23d57:	7e 87                	jle    23ce0 <_vfprintf_r+0x23e0>
   23d59:	8b 54 24 28          	mov    0x28(%rsp),%edx
   23d5d:	44 89 e6             	mov    %r12d,%esi
   23d60:	44 89 f7             	mov    %r14d,%edi
   23d63:	66 0f 1f 84 00 00 00 	nopw   0x0(%rax,%rax,1)
   23d6a:	00 00 
   23d6c:	66 66 66 66 66 66 2e 	data32 data32 data32 data32 data32 nopw %cs:0x0(%rax,%rax,1)
   23d73:	0f 1f 84 00 00 00 00 
   23d7a:	00 
   23d7b:	e8 60 d8 00 00       	callq  315e0 <__sprint_r>
   23d80:	85 c0                	test   %eax,%eax
   23d82:	0f 85 58 f6 ff ff    	jne    233e0 <_vfprintf_r+0x1ae0>
   23d88:	8d 84 24 d0 01 00 00 	lea    0x1d0(%rsp),%eax
   23d8f:	e9 6c ff ff ff       	jmpq   23d00 <_vfprintf_r+0x2400>
   23d94:	66 66 66 2e 0f 1f 84 	data32 data32 nopw %cs:0x0(%rax,%rax,1)
   23d9b:	00 00 00 00 00 
   23da0:	48 8b b4 24 00 01 00 	mov    0x100(%rsp),%rsi
   23da7:	00 
   23da8:	48 89 b4 24 a8 00 00 	mov    %rsi,0xa8(%rsp)
   23daf:	00 
   23db0:	48 8b b4 24 38 01 00 	mov    0x138(%rsp),%rsi
   23db7:	00 
   23db8:	48 8b 84 24 a8 00 00 	mov    0xa8(%rsp),%rax
   23dbf:	00 
   23dc0:	89 ca                	mov    %ecx,%edx
   23dc2:	48 c1 e9 04          	shr    $0x4,%rcx
   23dc6:	83 e8 01             	sub    $0x1,%eax
   23dc9:	83 e2 0f             	and    $0xf,%edx
   23dcc:	01 f2                	add    %esi,%edx
   23dce:	48 85 c9             	test   %rcx,%rcx
   23dd1:	89 d2                	mov    %edx,%edx
   23dd3:	41 0f b6 14 17       	movzbl (%r15,%rdx,1),%edx
   23dd8:	89 c0                	mov    %eax,%eax
   23dda:	41 88 14 07          	mov    %dl,(%r15,%rax,1)
   23dde:	66 90                	xchg   %ax,%ax
   23de0:	75 de                	jne    23dc0 <_vfprintf_r+0x24c0>
   23de2:	8b 94 24 00 01 00 00 	mov    0x100(%rsp),%edx
   23de9:	48 89 84 24 a8 00 00 	mov    %rax,0xa8(%rsp)
   23df0:	00 
   23df1:	48 8b b4 24 e8 00 00 	mov    0xe8(%rsp),%rsi
   23df8:	00 
   23df9:	29 c2                	sub    %eax,%edx
   23dfb:	0f 1f 44 00 00       	nopl   0x0(%rax,%rax,1)
   23e00:	89 94 24 c4 00 00 00 	mov    %edx,0xc4(%rsp)
   23e07:	e9 34 eb ff ff       	jmpq   22940 <_vfprintf_r+0x1040>
   23e0c:	0f 1f 44 00 00       	nopl   0x0(%rax,%rax,1)
   23e11:	66 66 66 66 66 66 2e 	data32 data32 data32 data32 data32 nopw %cs:0x0(%rax,%rax,1)
   23e18:	0f 1f 84 00 00 00 00 
   23e1f:	00 
   23e20:	48 83 f9 09          	cmp    $0x9,%rcx
   23e24:	0f 87 b6 09 00 00    	ja     247e0 <_vfprintf_r+0x2ee0>
   23e2a:	48 8b b4 24 48 01 00 	mov    0x148(%rsp),%rsi
   23e31:	00 
   23e32:	83 c1 30             	add    $0x30,%ecx
   23e35:	48 89 b4 24 a8 00 00 	mov    %rsi,0xa8(%rsp)
   23e3c:	00 
   23e3d:	0f 1f 00             	nopl   (%rax)
   23e40:	89 f6                	mov    %esi,%esi
   23e42:	41 88 0c 37          	mov    %cl,(%r15,%rsi,1)
   23e46:	c7 84 24 c4 00 00 00 	movl   $0x1,0xc4(%rsp)
   23e4d:	01 00 00 00 
   23e51:	48 8b b4 24 e8 00 00 	mov    0xe8(%rsp),%rsi
   23e58:	00 
   23e59:	e9 e2 ea ff ff       	jmpq   22940 <_vfprintf_r+0x1040>
   23e5e:	66 90                	xchg   %ax,%ax
   23e60:	8b b4 24 b8 00 00 00 	mov    0xb8(%rsp),%esi
   23e67:	8d 94 24 10 02 00 00 	lea    0x210(%rsp),%edx
   23e6e:	44 89 f7             	mov    %r14d,%edi
   23e71:	66 2e 0f 1f 84 00 00 	nopw   %cs:0x0(%rax,%rax,1)
   23e78:	00 00 00 
   23e7b:	e8 60 d7 00 00       	callq  315e0 <__sprint_r>
   23e80:	85 c0                	test   %eax,%eax
   23e82:	0f 85 58 f5 ff ff    	jne    233e0 <_vfprintf_r+0x1ae0>
   23e88:	0f b6 84 24 8f 02 00 	movzbl 0x28f(%rsp),%eax
   23e8f:	00 
   23e90:	8d 9c 24 d0 01 00 00 	lea    0x1d0(%rsp),%ebx
   23e97:	e9 24 e1 ff ff       	jmpq   21fc0 <_vfprintf_r+0x6c0>
   23e9c:	0f 1f 40 00          	nopl   0x0(%rax)
   23ea0:	41 f6 c5 10          	test   $0x10,%r13b
   23ea4:	0f 84 16 0e 00 00    	je     24cc0 <_vfprintf_r+0x33c0>
   23eaa:	48 8b 94 24 c8 00 00 	mov    0xc8(%rsp),%rdx
   23eb1:	00 
   23eb2:	89 d2                	mov    %edx,%edx
   23eb4:	41 8b 04 17          	mov    (%r15,%rdx,1),%eax
   23eb8:	83 f8 2f             	cmp    $0x2f,%eax
   23ebb:	0f 1f 44 00 00       	nopl   0x0(%rax,%rax,1)
   23ec0:	0f 87 3a 19 00 00    	ja     25800 <_vfprintf_r+0x3f00>
   23ec6:	48 89 d1             	mov    %rdx,%rcx
   23ec9:	89 d2                	mov    %edx,%edx
   23ecb:	41 8b 54 17 0c       	mov    0xc(%r15,%rdx,1),%edx
   23ed0:	01 c2                	add    %eax,%edx
   23ed2:	83 c0 08             	add    $0x8,%eax
   23ed5:	89 c9                	mov    %ecx,%ecx
   23ed7:	41 89 04 0f          	mov    %eax,(%r15,%rcx,1)
   23edb:	0f 1f 44 00 00       	nopl   0x0(%rax,%rax,1)
   23ee0:	89 d2                	mov    %edx,%edx
   23ee2:	41 8b 0c 17          	mov    (%r15,%rdx,1),%ecx
   23ee6:	b8 01 00 00 00       	mov    $0x1,%eax
   23eeb:	48 85 c9             	test   %rcx,%rcx
   23eee:	40 0f 95 c6          	setne  %sil
   23ef2:	e9 69 e9 ff ff       	jmpq   22860 <_vfprintf_r+0xf60>
   23ef7:	66 0f 1f 84 00 00 00 	nopw   0x0(%rax,%rax,1)
   23efe:	00 00 
   23f00:	41 f6 c5 10          	test   $0x10,%r13b
   23f04:	0f 84 76 0f 00 00    	je     24e80 <_vfprintf_r+0x3580>
   23f0a:	48 8b 94 24 c8 00 00 	mov    0xc8(%rsp),%rdx
   23f11:	00 
   23f12:	89 d2                	mov    %edx,%edx
   23f14:	41 8b 04 17          	mov    (%r15,%rdx,1),%eax
   23f18:	83 f8 2f             	cmp    $0x2f,%eax
   23f1b:	0f 1f 44 00 00       	nopl   0x0(%rax,%rax,1)
   23f20:	0f 87 ba 18 00 00    	ja     257e0 <_vfprintf_r+0x3ee0>
   23f26:	48 89 d1             	mov    %rdx,%rcx
   23f29:	89 d2                	mov    %edx,%edx
   23f2b:	41 8b 54 17 0c       	mov    0xc(%r15,%rdx,1),%edx
   23f30:	01 c2                	add    %eax,%edx
   23f32:	83 c0 08             	add    $0x8,%eax
   23f35:	89 c9                	mov    %ecx,%ecx
   23f37:	41 89 04 0f          	mov    %eax,(%r15,%rcx,1)
   23f3b:	0f 1f 44 00 00       	nopl   0x0(%rax,%rax,1)
   23f40:	89 d2                	mov    %edx,%edx
   23f42:	49 63 0c 17          	movslq (%r15,%rdx,1),%rcx
   23f46:	e9 d5 eb ff ff       	jmpq   22b20 <_vfprintf_r+0x1220>
   23f4b:	66 0f 1f 44 00 00    	nopw   0x0(%rax,%rax,1)
   23f51:	66 66 66 66 66 66 2e 	data32 data32 data32 data32 data32 nopw %cs:0x0(%rax,%rax,1)
   23f58:	0f 1f 84 00 00 00 00 
   23f5f:	00 
   23f60:	41 f6 c5 10          	test   $0x10,%r13b
   23f64:	0f 84 d6 0f 00 00    	je     24f40 <_vfprintf_r+0x3640>
   23f6a:	48 8b 94 24 c8 00 00 	mov    0xc8(%rsp),%rdx
   23f71:	00 
   23f72:	89 d2                	mov    %edx,%edx
   23f74:	41 8b 04 17          	mov    (%r15,%rdx,1),%eax
   23f78:	83 f8 2f             	cmp    $0x2f,%eax
   23f7b:	0f 1f 44 00 00       	nopl   0x0(%rax,%rax,1)
   23f80:	0f 87 9a 1a 00 00    	ja     25a20 <_vfprintf_r+0x4120>
   23f86:	48 89 d1             	mov    %rdx,%rcx
   23f89:	89 d2                	mov    %edx,%edx
   23f8b:	41 8b 54 17 0c       	mov    0xc(%r15,%rdx,1),%edx
   23f90:	01 c2                	add    %eax,%edx
   23f92:	83 c0 08             	add    $0x8,%eax
   23f95:	89 c9                	mov    %ecx,%ecx
   23f97:	41 89 04 0f          	mov    %eax,(%r15,%rcx,1)
   23f9b:	0f 1f 44 00 00       	nopl   0x0(%rax,%rax,1)
   23fa0:	89 d2                	mov    %edx,%edx
   23fa2:	41 8b 0c 17          	mov    (%r15,%rdx,1),%ecx
   23fa6:	e9 35 ef ff ff       	jmpq   22ee0 <_vfprintf_r+0x15e0>
   23fab:	66 0f 1f 44 00 00    	nopw   0x0(%rax,%rax,1)
   23fb1:	66 66 66 66 66 66 2e 	data32 data32 data32 data32 data32 nopw %cs:0x0(%rax,%rax,1)
   23fb8:	0f 1f 84 00 00 00 00 
   23fbf:	00 
   23fc0:	8b 9c 24 0c 01 00 00 	mov    0x10c(%rsp),%ebx
   23fc7:	83 eb 01             	sub    $0x1,%ebx
   23fca:	85 db                	test   %ebx,%ebx
   23fcc:	0f 8e 0e fa ff ff    	jle    239e0 <_vfprintf_r+0x20e0>
   23fd2:	83 fb 10             	cmp    $0x10,%ebx
   23fd5:	0f 8e c5 09 00 00    	jle    249a0 <_vfprintf_r+0x30a0>
   23fdb:	0f 1f 44 00 00       	nopl   0x0(%rax,%rax,1)
   23fe0:	8d b4 24 10 02 00 00 	lea    0x210(%rsp),%esi
   23fe7:	44 89 ac 24 a8 00 00 	mov    %r13d,0xa8(%rsp)
   23fee:	00 
   23fef:	4d 89 e5             	mov    %r12,%r13
   23ff2:	4c 8b a4 24 b8 00 00 	mov    0xb8(%rsp),%r12
   23ff9:	00 
   23ffa:	48 89 74 24 10       	mov    %rsi,0x10(%rsp)
   23fff:	90                   	nop
   24000:	eb 5e                	jmp    24060 <_vfprintf_r+0x2760>
   24002:	66 66 66 66 66 66 2e 	data32 data32 data32 data32 data32 nopw %cs:0x0(%rax,%rax,1)
   24009:	0f 1f 84 00 00 00 00 
   24010:	00 
   24011:	66 66 66 66 66 66 2e 	data32 data32 data32 data32 data32 nopw %cs:0x0(%rax,%rax,1)
   24018:	0f 1f 84 00 00 00 00 
   2401f:	00 
   24020:	83 c0 08             	add    $0x8,%eax
   24023:	66 66 66 66 66 2e 0f 	data32 data32 data32 data32 nopw %cs:0x0(%rax,%rax,1)
   2402a:	1f 84 00 00 00 00 00 
   24031:	66 66 66 66 66 66 2e 	data32 data32 data32 data32 data32 nopw %cs:0x0(%rax,%rax,1)
   24038:	0f 1f 84 00 00 00 00 
   2403f:	00 
   24040:	83 eb 10             	sub    $0x10,%ebx
   24043:	83 fb 10             	cmp    $0x10,%ebx
   24046:	0f 8e 34 09 00 00    	jle    24980 <_vfprintf_r+0x3080>
   2404c:	0f 1f 44 00 00       	nopl   0x0(%rax,%rax,1)
   24051:	66 66 66 66 66 66 2e 	data32 data32 data32 data32 data32 nopw %cs:0x0(%rax,%rax,1)
   24058:	0f 1f 84 00 00 00 00 
   2405f:	00 
   24060:	89 c0                	mov    %eax,%eax
   24062:	41 c7 44 07 04 10 00 	movl   $0x10,0x4(%r15,%rax,1)
   24069:	00 00 
   2406b:	8b 94 24 14 02 00 00 	mov    0x214(%rsp),%edx
   24072:	83 84 24 18 02 00 00 	addl   $0x10,0x218(%rsp)
   24079:	10 
   2407a:	66 0f 1f 44 00 00    	nopw   0x0(%rax,%rax,1)
   24080:	89 c0                	mov    %eax,%eax
   24082:	41 c7 04 07 e0 05 02 	movl   $0x100205e0,(%r15,%rax,1)
   24089:	10 
   2408a:	83 c2 01             	add    $0x1,%edx
   2408d:	83 fa 07             	cmp    $0x7,%edx
   24090:	89 94 24 14 02 00 00 	mov    %edx,0x214(%rsp)
   24097:	7e 87                	jle    24020 <_vfprintf_r+0x2720>
   24099:	8b 54 24 10          	mov    0x10(%rsp),%edx
   2409d:	44 89 e6             	mov    %r12d,%esi
   240a0:	44 89 f7             	mov    %r14d,%edi
   240a3:	66 0f 1f 84 00 00 00 	nopw   0x0(%rax,%rax,1)
   240aa:	00 00 
   240ac:	66 66 66 66 66 66 2e 	data32 data32 data32 data32 data32 nopw %cs:0x0(%rax,%rax,1)
   240b3:	0f 1f 84 00 00 00 00 
   240ba:	00 
   240bb:	e8 20 d5 00 00       	callq  315e0 <__sprint_r>
   240c0:	85 c0                	test   %eax,%eax
   240c2:	0f 85 18 f3 ff ff    	jne    233e0 <_vfprintf_r+0x1ae0>
   240c8:	8d 84 24 d0 01 00 00 	lea    0x1d0(%rsp),%eax
   240cf:	e9 6c ff ff ff       	jmpq   24040 <_vfprintf_r+0x2740>
   240d4:	66 66 66 2e 0f 1f 84 	data32 data32 nopw %cs:0x0(%rax,%rax,1)
   240db:	00 00 00 00 00 
   240e0:	4d 89 ec             	mov    %r13,%r12
   240e3:	44 8b ac 24 a8 00 00 	mov    0xa8(%rsp),%r13d
   240ea:	00 
   240eb:	89 d9                	mov    %ebx,%ecx
   240ed:	48 89 c3             	mov    %rax,%rbx
   240f0:	90                   	nop
   240f1:	66 66 66 66 66 66 2e 	data32 data32 data32 data32 data32 nopw %cs:0x0(%rax,%rax,1)
   240f8:	0f 1f 84 00 00 00 00 
   240ff:	00 
   24100:	89 db                	mov    %ebx,%ebx
   24102:	41 89 4c 1f 04       	mov    %ecx,0x4(%r15,%rbx,1)
   24107:	89 db                	mov    %ebx,%ebx
   24109:	41 c7 04 1f e0 05 02 	movl   $0x100205e0,(%r15,%rbx,1)
   24110:	10 
   24111:	01 8c 24 18 02 00 00 	add    %ecx,0x218(%rsp)
   24118:	e9 23 e1 ff ff       	jmpq   22240 <_vfprintf_r+0x940>
   2411d:	0f 1f 00             	nopl   (%rax)
   24120:	8b b4 24 b8 00 00 00 	mov    0xb8(%rsp),%esi
   24127:	8d 94 24 10 02 00 00 	lea    0x210(%rsp),%edx
   2412e:	44 89 f7             	mov    %r14d,%edi
   24131:	66 2e 0f 1f 84 00 00 	nopw   %cs:0x0(%rax,%rax,1)
   24138:	00 00 00 
   2413b:	e8 a0 d4 00 00       	callq  315e0 <__sprint_r>
   24140:	85 c0                	test   %eax,%eax
   24142:	0f 85 98 f2 ff ff    	jne    233e0 <_vfprintf_r+0x1ae0>
   24148:	8d 9c 24 d0 01 00 00 	lea    0x1d0(%rsp),%ebx
   2414f:	66 90                	xchg   %ax,%ax
   24151:	66 66 66 66 66 66 2e 	data32 data32 data32 data32 data32 nopw %cs:0x0(%rax,%rax,1)
   24158:	0f 1f 84 00 00 00 00 
   2415f:	00 
   24160:	8b 94 24 1c 01 00 00 	mov    0x11c(%rsp),%edx
   24167:	03 94 24 a8 00 00 00 	add    0xa8(%rsp),%edx
   2416e:	41 f7 c5 00 04 00 00 	test   $0x400,%r13d
   24175:	48 89 94 24 a8 00 00 	mov    %rdx,0xa8(%rsp)
   2417c:	00 
   2417d:	0f 1f 00             	nopl   (%rax)
   24180:	0f 84 fa 02 00 00    	je     24480 <_vfprintf_r+0x2b80>
   24186:	8b b4 24 20 01 00 00 	mov    0x120(%rsp),%esi
   2418d:	85 f6                	test   %esi,%esi
   2418f:	0f 8e 6b 19 00 00    	jle    25b00 <_vfprintf_r+0x4200>
   24195:	66 66 2e 0f 1f 84 00 	data32 nopw %cs:0x0(%rax,%rax,1)
   2419c:	00 00 00 00 
   241a0:	8d 8c 24 10 02 00 00 	lea    0x210(%rsp),%ecx
   241a7:	44 89 ac 24 f4 00 00 	mov    %r13d,0xf4(%rsp)
   241ae:	00 
   241af:	4d 89 e5             	mov    %r12,%r13
   241b2:	4c 8b a4 24 b8 00 00 	mov    0xb8(%rsp),%r12
   241b9:	00 
   241ba:	48 89 d8             	mov    %rbx,%rax
   241bd:	0f 1f 00             	nopl   (%rax)
   241c0:	48 89 4c 24 20       	mov    %rcx,0x20(%rsp)
   241c5:	66 66 66 2e 0f 1f 84 	data32 data32 nopw %cs:0x0(%rax,%rax,1)
   241cc:	00 00 00 00 00 
   241d1:	66 66 66 66 66 66 2e 	data32 data32 data32 data32 data32 nopw %cs:0x0(%rax,%rax,1)
   241d8:	0f 1f 84 00 00 00 00 
   241df:	00 
   241e0:	8b 9c 24 08 01 00 00 	mov    0x108(%rsp),%ebx
   241e7:	85 db                	test   %ebx,%ebx
   241e9:	0f 84 d1 0b 00 00    	je     24dc0 <_vfprintf_r+0x34c0>
   241ef:	83 ac 24 08 01 00 00 	subl   $0x1,0x108(%rsp)
   241f6:	01 
   241f7:	66 0f 1f 84 00 00 00 	nopw   0x0(%rax,%rax,1)
   241fe:	00 00 
   24200:	8b 94 24 30 01 00 00 	mov    0x130(%rsp),%edx
   24207:	8b b4 24 40 01 00 00 	mov    0x140(%rsp),%esi
   2420e:	89 c0                	mov    %eax,%eax
   24210:	41 89 54 07 04       	mov    %edx,0x4(%r15,%rax,1)
   24215:	01 94 24 18 02 00 00 	add    %edx,0x218(%rsp)
   2421c:	0f 1f 40 00          	nopl   0x0(%rax)
   24220:	8b 94 24 14 02 00 00 	mov    0x214(%rsp),%edx
   24227:	89 c0                	mov    %eax,%eax
   24229:	41 89 34 07          	mov    %esi,(%r15,%rax,1)
   2422d:	83 c2 01             	add    $0x1,%edx
   24230:	83 fa 07             	cmp    $0x7,%edx
   24233:	89 94 24 14 02 00 00 	mov    %edx,0x214(%rsp)
   2423a:	0f 8f a0 09 00 00    	jg     24be0 <_vfprintf_r+0x32e0>
   24240:	83 c0 08             	add    $0x8,%eax
   24243:	66 66 66 66 66 2e 0f 	data32 data32 data32 data32 nopw %cs:0x0(%rax,%rax,1)
   2424a:	1f 84 00 00 00 00 00 
   24251:	66 66 66 66 66 66 2e 	data32 data32 data32 data32 data32 nopw %cs:0x0(%rax,%rax,1)
   24258:	0f 1f 84 00 00 00 00 
   2425f:	00 
   24260:	48 8b 9c 24 e8 00 00 	mov    0xe8(%rsp),%rbx
   24267:	00 
   24268:	8b 8c 24 c4 00 00 00 	mov    0xc4(%rsp),%ecx
   2426f:	2b 8c 24 a8 00 00 00 	sub    0xa8(%rsp),%ecx
   24276:	89 db                	mov    %ebx,%ebx
   24278:	41 0f be 14 1f       	movsbl (%r15,%rbx,1),%edx
   2427d:	39 ca                	cmp    %ecx,%edx
   2427f:	90                   	nop
   24280:	0f 4e ca             	cmovle %edx,%ecx
   24283:	85 c9                	test   %ecx,%ecx
   24285:	7e 59                	jle    242e0 <_vfprintf_r+0x29e0>
   24287:	89 c0                	mov    %eax,%eax
   24289:	41 89 4c 07 04       	mov    %ecx,0x4(%r15,%rax,1)
   2428e:	8b 94 24 14 02 00 00 	mov    0x214(%rsp),%edx
   24295:	8b b4 24 a8 00 00 00 	mov    0xa8(%rsp),%esi
   2429c:	0f 1f 40 00          	nopl   0x0(%rax)
   242a0:	01 8c 24 18 02 00 00 	add    %ecx,0x218(%rsp)
   242a7:	83 c2 01             	add    $0x1,%edx
   242aa:	83 fa 07             	cmp    $0x7,%edx
   242ad:	89 c0                	mov    %eax,%eax
   242af:	41 89 34 07          	mov    %esi,(%r15,%rax,1)
   242b3:	89 94 24 14 02 00 00 	mov    %edx,0x214(%rsp)
   242ba:	0f 8f 20 14 00 00    	jg     256e0 <_vfprintf_r+0x3de0>
   242c0:	89 db                	mov    %ebx,%ebx
   242c2:	41 0f be 14 1f       	movsbl (%r15,%rbx,1),%edx
   242c7:	83 c0 08             	add    $0x8,%eax
   242ca:	0f 1f 80 00 00 00 00 	nopl   0x0(%rax)
   242d1:	66 66 66 66 66 66 2e 	data32 data32 data32 data32 data32 nopw %cs:0x0(%rax,%rax,1)
   242d8:	0f 1f 84 00 00 00 00 
   242df:	00 
   242e0:	85 c9                	test   %ecx,%ecx
   242e2:	bb 00 00 00 00       	mov    $0x0,%ebx
   242e7:	0f 48 cb             	cmovs  %ebx,%ecx
   242ea:	89 d3                	mov    %edx,%ebx
   242ec:	29 cb                	sub    %ecx,%ebx
   242ee:	85 db                	test   %ebx,%ebx
   242f0:	7f 4e                	jg     24340 <_vfprintf_r+0x2a40>
   242f2:	e9 09 01 00 00       	jmpq   24400 <_vfprintf_r+0x2b00>
   242f7:	66 0f 1f 84 00 00 00 	nopw   0x0(%rax,%rax,1)
   242fe:	00 00 
   24300:	83 c0 08             	add    $0x8,%eax
   24303:	66 66 66 66 66 2e 0f 	data32 data32 data32 data32 nopw %cs:0x0(%rax,%rax,1)
   2430a:	1f 84 00 00 00 00 00 
   24311:	66 66 66 66 66 66 2e 	data32 data32 data32 data32 data32 nopw %cs:0x0(%rax,%rax,1)
   24318:	0f 1f 84 00 00 00 00 
   2431f:	00 
   24320:	83 eb 10             	sub    $0x10,%ebx
   24323:	66 66 66 66 66 2e 0f 	data32 data32 data32 data32 nopw %cs:0x0(%rax,%rax,1)
   2432a:	1f 84 00 00 00 00 00 
   24331:	66 66 66 66 66 66 2e 	data32 data32 data32 data32 data32 nopw %cs:0x0(%rax,%rax,1)
   24338:	0f 1f 84 00 00 00 00 
   2433f:	00 
   24340:	83 fb 10             	cmp    $0x10,%ebx
   24343:	0f 8e 57 03 00 00    	jle    246a0 <_vfprintf_r+0x2da0>
   24349:	89 c0                	mov    %eax,%eax
   2434b:	41 c7 44 07 04 10 00 	movl   $0x10,0x4(%r15,%rax,1)
   24352:	00 00 
   24354:	8b 94 24 14 02 00 00 	mov    0x214(%rsp),%edx
   2435b:	0f 1f 44 00 00       	nopl   0x0(%rax,%rax,1)
   24360:	83 84 24 18 02 00 00 	addl   $0x10,0x218(%rsp)
   24367:	10 
   24368:	89 c0                	mov    %eax,%eax
   2436a:	41 c7 04 07 e0 05 02 	movl   $0x100205e0,(%r15,%rax,1)
   24371:	10 
   24372:	83 c2 01             	add    $0x1,%edx
   24375:	83 fa 07             	cmp    $0x7,%edx
   24378:	89 94 24 14 02 00 00 	mov    %edx,0x214(%rsp)
   2437f:	90                   	nop
   24380:	0f 8e 7a ff ff ff    	jle    24300 <_vfprintf_r+0x2a00>
   24386:	8b 54 24 20          	mov    0x20(%rsp),%edx
   2438a:	44 89 e6             	mov    %r12d,%esi
   2438d:	44 89 f7             	mov    %r14d,%edi
   24390:	66 66 2e 0f 1f 84 00 	data32 nopw %cs:0x0(%rax,%rax,1)
   24397:	00 00 00 00 
   2439b:	e8 40 d2 00 00       	callq  315e0 <__sprint_r>
   243a0:	85 c0                	test   %eax,%eax
   243a2:	0f 85 38 f0 ff ff    	jne    233e0 <_vfprintf_r+0x1ae0>
   243a8:	8d 84 24 d0 01 00 00 	lea    0x1d0(%rsp),%eax
   243af:	e9 6c ff ff ff       	jmpq   24320 <_vfprintf_r+0x2a20>
   243b4:	66 66 66 2e 0f 1f 84 	data32 data32 nopw %cs:0x0(%rax,%rax,1)
   243bb:	00 00 00 00 00 
   243c0:	8b 54 24 20          	mov    0x20(%rsp),%edx
   243c4:	44 89 e6             	mov    %r12d,%esi
   243c7:	44 89 f7             	mov    %r14d,%edi
   243ca:	66 90                	xchg   %ax,%ax
   243cc:	66 66 66 66 66 66 2e 	data32 data32 data32 data32 data32 nopw %cs:0x0(%rax,%rax,1)
   243d3:	0f 1f 84 00 00 00 00 
   243da:	00 
   243db:	e8 00 d2 00 00       	callq  315e0 <__sprint_r>
   243e0:	85 c0                	test   %eax,%eax
   243e2:	0f 85 f8 ef ff ff    	jne    233e0 <_vfprintf_r+0x1ae0>
   243e8:	48 8b 8c 24 e8 00 00 	mov    0xe8(%rsp),%rcx
   243ef:	00 
   243f0:	8d 84 24 d0 01 00 00 	lea    0x1d0(%rsp),%eax
   243f7:	89 c9                	mov    %ecx,%ecx
   243f9:	41 0f be 14 0f       	movsbl (%r15,%rcx,1),%edx
   243fe:	66 90                	xchg   %ax,%ax
   24400:	03 94 24 a8 00 00 00 	add    0xa8(%rsp),%edx
   24407:	8b 8c 24 08 01 00 00 	mov    0x108(%rsp),%ecx
   2440e:	85 c9                	test   %ecx,%ecx
   24410:	48 89 94 24 a8 00 00 	mov    %rdx,0xa8(%rsp)
   24417:	00 
   24418:	0f 8f c2 fd ff ff    	jg     241e0 <_vfprintf_r+0x28e0>
   2441e:	66 90                	xchg   %ax,%ax
   24420:	8b 94 24 20 01 00 00 	mov    0x120(%rsp),%edx
   24427:	85 d2                	test   %edx,%edx
   24429:	0f 8f b1 fd ff ff    	jg     241e0 <_vfprintf_r+0x28e0>
   2442f:	4d 89 ec             	mov    %r13,%r12
   24432:	44 8b ac 24 f4 00 00 	mov    0xf4(%rsp),%r13d
   24439:	00 
   2443a:	48 89 c3             	mov    %rax,%rbx
   2443d:	0f 1f 00             	nopl   (%rax)
   24440:	8b b4 24 d8 00 00 00 	mov    0xd8(%rsp),%esi
   24447:	39 b4 24 a8 00 00 00 	cmp    %esi,0xa8(%rsp)
   2444e:	48 8b 84 24 d8 00 00 	mov    0xd8(%rsp),%rax
   24455:	00 
   24456:	48 0f 46 84 24 a8 00 	cmovbe 0xa8(%rsp),%rax
   2445d:	00 00 
   2445f:	90                   	nop
   24460:	48 89 84 24 a8 00 00 	mov    %rax,0xa8(%rsp)
   24467:	00 
   24468:	66 0f 1f 84 00 00 00 	nopw   0x0(%rax,%rax,1)
   2446f:	00 00 
   24471:	66 66 66 66 66 66 2e 	data32 data32 data32 data32 data32 nopw %cs:0x0(%rax,%rax,1)
   24478:	0f 1f 84 00 00 00 00 
   2447f:	00 
   24480:	8b 8c 24 7c 02 00 00 	mov    0x27c(%rsp),%ecx
   24487:	3b 8c 24 0c 01 00 00 	cmp    0x10c(%rsp),%ecx
   2448e:	0f 8d ec 15 00 00    	jge    25a80 <_vfprintf_r+0x4180>
   24494:	66 66 66 2e 0f 1f 84 	data32 data32 nopw %cs:0x0(%rax,%rax,1)
   2449b:	00 00 00 00 00 
   244a0:	8b 8c 24 24 01 00 00 	mov    0x124(%rsp),%ecx
   244a7:	8b 94 24 10 01 00 00 	mov    0x110(%rsp),%edx
   244ae:	89 db                	mov    %ebx,%ebx
   244b0:	41 89 4c 1f 04       	mov    %ecx,0x4(%r15,%rbx,1)
   244b5:	8b 84 24 14 02 00 00 	mov    0x214(%rsp),%eax
   244bc:	0f 1f 40 00          	nopl   0x0(%rax)
   244c0:	01 8c 24 18 02 00 00 	add    %ecx,0x218(%rsp)
   244c7:	89 db                	mov    %ebx,%ebx
   244c9:	41 89 14 1f          	mov    %edx,(%r15,%rbx,1)
   244cd:	83 c0 01             	add    $0x1,%eax
   244d0:	83 f8 07             	cmp    $0x7,%eax
   244d3:	89 84 24 14 02 00 00 	mov    %eax,0x214(%rsp)
   244da:	0f 8f e0 23 00 00    	jg     268c0 <_vfprintf_r+0x4fc0>
   244e0:	8b 8c 24 7c 02 00 00 	mov    0x27c(%rsp),%ecx
   244e7:	83 c3 08             	add    $0x8,%ebx
   244ea:	0f 1f 80 00 00 00 00 	nopl   0x0(%rax)
   244f1:	66 66 66 66 66 66 2e 	data32 data32 data32 data32 data32 nopw %cs:0x0(%rax,%rax,1)
   244f8:	0f 1f 84 00 00 00 00 
   244ff:	00 
   24500:	44 8b 84 24 c4 00 00 	mov    0xc4(%rsp),%r8d
   24507:	00 
   24508:	8b b4 24 0c 01 00 00 	mov    0x10c(%rsp),%esi
   2450f:	44 2b 84 24 a8 00 00 	sub    0xa8(%rsp),%r8d
   24516:	00 
   24517:	29 ce                	sub    %ecx,%esi
   24519:	89 f1                	mov    %esi,%ecx
   2451b:	44 39 c6             	cmp    %r8d,%esi
   2451e:	66 90                	xchg   %ax,%ax
   24520:	44 0f 4e c6          	cmovle %esi,%r8d
   24524:	45 85 c0             	test   %r8d,%r8d
   24527:	7e 57                	jle    24580 <_vfprintf_r+0x2c80>
   24529:	8b 84 24 a8 00 00 00 	mov    0xa8(%rsp),%eax
   24530:	89 db                	mov    %ebx,%ebx
   24532:	45 89 44 1f 04       	mov    %r8d,0x4(%r15,%rbx,1)
   24537:	44 01 84 24 18 02 00 	add    %r8d,0x218(%rsp)
   2453e:	00 
   2453f:	90                   	nop
   24540:	89 db                	mov    %ebx,%ebx
   24542:	41 89 04 1f          	mov    %eax,(%r15,%rbx,1)
   24546:	8b 84 24 14 02 00 00 	mov    0x214(%rsp),%eax
   2454d:	83 c0 01             	add    $0x1,%eax
   24550:	83 f8 07             	cmp    $0x7,%eax
   24553:	89 84 24 14 02 00 00 	mov    %eax,0x214(%rsp)
   2455a:	0f 8f a0 23 00 00    	jg     26900 <_vfprintf_r+0x5000>
   24560:	8b 8c 24 0c 01 00 00 	mov    0x10c(%rsp),%ecx
   24567:	2b 8c 24 7c 02 00 00 	sub    0x27c(%rsp),%ecx
   2456e:	83 c3 08             	add    $0x8,%ebx
   24571:	66 66 66 66 66 66 2e 	data32 data32 data32 data32 data32 nopw %cs:0x0(%rax,%rax,1)
   24578:	0f 1f 84 00 00 00 00 
   2457f:	00 
   24580:	31 c0                	xor    %eax,%eax
   24582:	45 85 c0             	test   %r8d,%r8d
   24585:	41 0f 49 c0          	cmovns %r8d,%eax
   24589:	29 c1                	sub    %eax,%ecx
   2458b:	85 c9                	test   %ecx,%ecx
   2458d:	0f 8e cd dc ff ff    	jle    22260 <_vfprintf_r+0x960>
   24593:	83 f9 10             	cmp    $0x10,%ecx
   24596:	0f 8e 64 fb ff ff    	jle    24100 <_vfprintf_r+0x2800>
   2459c:	0f 1f 40 00          	nopl   0x0(%rax)
   245a0:	8d 94 24 10 02 00 00 	lea    0x210(%rsp),%edx
   245a7:	48 89 d8             	mov    %rbx,%rax
   245aa:	44 89 ac 24 a8 00 00 	mov    %r13d,0xa8(%rsp)
   245b1:	00 
   245b2:	89 cb                	mov    %ecx,%ebx
   245b4:	4d 89 e5             	mov    %r12,%r13
   245b7:	4c 8b a4 24 b8 00 00 	mov    0xb8(%rsp),%r12
   245be:	00 
   245bf:	90                   	nop
   245c0:	48 89 54 24 18       	mov    %rdx,0x18(%rsp)
   245c5:	eb 59                	jmp    24620 <_vfprintf_r+0x2d20>
   245c7:	66 2e 0f 1f 84 00 00 	nopw   %cs:0x0(%rax,%rax,1)
   245ce:	00 00 00 
   245d1:	66 66 66 66 66 66 2e 	data32 data32 data32 data32 data32 nopw %cs:0x0(%rax,%rax,1)
   245d8:	0f 1f 84 00 00 00 00 
   245df:	00 
   245e0:	83 c0 08             	add    $0x8,%eax
   245e3:	66 66 66 66 66 2e 0f 	data32 data32 data32 data32 nopw %cs:0x0(%rax,%rax,1)
   245ea:	1f 84 00 00 00 00 00 
   245f1:	66 66 66 66 66 66 2e 	data32 data32 data32 data32 data32 nopw %cs:0x0(%rax,%rax,1)
   245f8:	0f 1f 84 00 00 00 00 
   245ff:	00 
   24600:	83 eb 10             	sub    $0x10,%ebx
   24603:	83 fb 10             	cmp    $0x10,%ebx
   24606:	0f 8e d4 fa ff ff    	jle    240e0 <_vfprintf_r+0x27e0>
   2460c:	0f 1f 44 00 00       	nopl   0x0(%rax,%rax,1)
   24611:	66 66 66 66 66 66 2e 	data32 data32 data32 data32 data32 nopw %cs:0x0(%rax,%rax,1)
   24618:	0f 1f 84 00 00 00 00 
   2461f:	00 
   24620:	89 c0                	mov    %eax,%eax
   24622:	41 c7 44 07 04 10 00 	movl   $0x10,0x4(%r15,%rax,1)
   24629:	00 00 
   2462b:	8b 94 24 14 02 00 00 	mov    0x214(%rsp),%edx
   24632:	83 84 24 18 02 00 00 	addl   $0x10,0x218(%rsp)
   24639:	10 
   2463a:	66 0f 1f 44 00 00    	nopw   0x0(%rax,%rax,1)
   24640:	89 c0                	mov    %eax,%eax
   24642:	41 c7 04 07 e0 05 02 	movl   $0x100205e0,(%r15,%rax,1)
   24649:	10 
   2464a:	83 c2 01             	add    $0x1,%edx
   2464d:	83 fa 07             	cmp    $0x7,%edx
   24650:	89 94 24 14 02 00 00 	mov    %edx,0x214(%rsp)
   24657:	7e 87                	jle    245e0 <_vfprintf_r+0x2ce0>
   24659:	8b 54 24 18          	mov    0x18(%rsp),%edx
   2465d:	44 89 e6             	mov    %r12d,%esi
   24660:	44 89 f7             	mov    %r14d,%edi
   24663:	66 0f 1f 84 00 00 00 	nopw   0x0(%rax,%rax,1)
   2466a:	00 00 
   2466c:	66 66 66 66 66 66 2e 	data32 data32 data32 data32 data32 nopw %cs:0x0(%rax,%rax,1)
   24673:	0f 1f 84 00 00 00 00 
   2467a:	00 
   2467b:	e8 60 cf 00 00       	callq  315e0 <__sprint_r>
   24680:	85 c0                	test   %eax,%eax
   24682:	0f 85 58 ed ff ff    	jne    233e0 <_vfprintf_r+0x1ae0>
   24688:	8d 84 24 d0 01 00 00 	lea    0x1d0(%rsp),%eax
   2468f:	e9 6c ff ff ff       	jmpq   24600 <_vfprintf_r+0x2d00>
   24694:	66 66 66 2e 0f 1f 84 	data32 data32 nopw %cs:0x0(%rax,%rax,1)
   2469b:	00 00 00 00 00 
   246a0:	89 c0                	mov    %eax,%eax
   246a2:	41 89 5c 07 04       	mov    %ebx,0x4(%r15,%rax,1)
   246a7:	8b 94 24 14 02 00 00 	mov    0x214(%rsp),%edx
   246ae:	01 9c 24 18 02 00 00 	add    %ebx,0x218(%rsp)
   246b5:	89 c0                	mov    %eax,%eax
   246b7:	41 c7 04 07 e0 05 02 	movl   $0x100205e0,(%r15,%rax,1)
   246be:	10 
   246bf:	90                   	nop
   246c0:	83 c2 01             	add    $0x1,%edx
   246c3:	83 fa 07             	cmp    $0x7,%edx
   246c6:	89 94 24 14 02 00 00 	mov    %edx,0x214(%rsp)
   246cd:	0f 8f ed fc ff ff    	jg     243c0 <_vfprintf_r+0x2ac0>
   246d3:	48 8b b4 24 e8 00 00 	mov    0xe8(%rsp),%rsi
   246da:	00 
   246db:	83 c0 08             	add    $0x8,%eax
   246de:	66 90                	xchg   %ax,%ax
   246e0:	89 f6                	mov    %esi,%esi
   246e2:	41 0f be 14 37       	movsbl (%r15,%rsi,1),%edx
   246e7:	e9 14 fd ff ff       	jmpq   24400 <_vfprintf_r+0x2b00>
   246ec:	0f 1f 44 00 00       	nopl   0x0(%rax,%rax,1)
   246f1:	66 66 66 66 66 66 2e 	data32 data32 data32 data32 data32 nopw %cs:0x0(%rax,%rax,1)
   246f8:	0f 1f 84 00 00 00 00 
   246ff:	00 
   24700:	41 f6 c5 01          	test   $0x1,%r13b
   24704:	0f 85 96 f1 ff ff    	jne    238a0 <_vfprintf_r+0x1fa0>
   2470a:	8b 84 24 a8 00 00 00 	mov    0xa8(%rsp),%eax
   24711:	89 db                	mov    %ebx,%ebx
   24713:	41 c7 44 1f 04 01 00 	movl   $0x1,0x4(%r15,%rbx,1)
   2471a:	00 00 
   2471c:	0f 1f 40 00          	nopl   0x0(%rax)
   24720:	83 84 24 18 02 00 00 	addl   $0x1,0x218(%rsp)
   24727:	01 
   24728:	89 db                	mov    %ebx,%ebx
   2472a:	41 89 04 1f          	mov    %eax,(%r15,%rbx,1)
   2472e:	8b 84 24 14 02 00 00 	mov    0x214(%rsp),%eax
   24735:	83 c0 01             	add    $0x1,%eax
   24738:	83 f8 07             	cmp    $0x7,%eax
   2473b:	0f 1f 44 00 00       	nopl   0x0(%rax,%rax,1)
   24740:	89 84 24 14 02 00 00 	mov    %eax,0x214(%rsp)
   24747:	0f 8f 53 04 00 00    	jg     24ba0 <_vfprintf_r+0x32a0>
   2474d:	8d 43 08             	lea    0x8(%rbx),%eax
   24750:	e9 8b f2 ff ff       	jmpq   239e0 <_vfprintf_r+0x20e0>
   24755:	66 66 2e 0f 1f 84 00 	data32 nopw %cs:0x0(%rax,%rax,1)
   2475c:	00 00 00 00 
   24760:	8b b4 24 b8 00 00 00 	mov    0xb8(%rsp),%esi
   24767:	8d 94 24 10 02 00 00 	lea    0x210(%rsp),%edx
   2476e:	44 89 f7             	mov    %r14d,%edi
   24771:	66 2e 0f 1f 84 00 00 	nopw   %cs:0x0(%rax,%rax,1)
   24778:	00 00 00 
   2477b:	e8 60 ce 00 00       	callq  315e0 <__sprint_r>
   24780:	85 c0                	test   %eax,%eax
   24782:	0f 85 58 ec ff ff    	jne    233e0 <_vfprintf_r+0x1ae0>
   24788:	8d 84 24 d0 01 00 00 	lea    0x1d0(%rsp),%eax
   2478f:	e9 6c f1 ff ff       	jmpq   23900 <_vfprintf_r+0x2000>
   24794:	66 66 66 2e 0f 1f 84 	data32 data32 nopw %cs:0x0(%rax,%rax,1)
   2479b:	00 00 00 00 00 
   247a0:	8b b4 24 b8 00 00 00 	mov    0xb8(%rsp),%esi
   247a7:	8d 94 24 10 02 00 00 	lea    0x210(%rsp),%edx
   247ae:	44 89 f7             	mov    %r14d,%edi
   247b1:	66 2e 0f 1f 84 00 00 	nopw   %cs:0x0(%rax,%rax,1)
   247b8:	00 00 00 
   247bb:	e8 20 ce 00 00       	callq  315e0 <__sprint_r>
   247c0:	85 c0                	test   %eax,%eax
   247c2:	0f 85 18 ec ff ff    	jne    233e0 <_vfprintf_r+0x1ae0>
   247c8:	8d 84 24 d0 01 00 00 	lea    0x1d0(%rsp),%eax
   247cf:	e9 8c f1 ff ff       	jmpq   23960 <_vfprintf_r+0x2060>
   247d4:	66 66 66 2e 0f 1f 84 	data32 data32 nopw %cs:0x0(%rax,%rax,1)
   247db:	00 00 00 00 00 
   247e0:	44 8b 9c 24 30 01 00 	mov    0x130(%rsp),%r11d
   247e7:	00 
   247e8:	48 8b 84 24 00 01 00 	mov    0x100(%rsp),%rax
   247ef:	00 
   247f0:	45 89 e9             	mov    %r13d,%r9d
   247f3:	44 89 94 24 b0 00 00 	mov    %r10d,0xb0(%rsp)
   247fa:	00 
   247fb:	0f 1f 44 00 00       	nopl   0x0(%rax,%rax,1)
   24800:	41 81 e1 00 04 00 00 	and    $0x400,%r9d
   24807:	49 89 da             	mov    %rbx,%r10
   2480a:	c7 84 24 0c 01 00 00 	movl   $0x0,0x10c(%rsp)
   24811:	00 00 00 00 
   24815:	49 b8 cd cc cc cc cc 	movabs $0xcccccccccccccccd,%r8
   2481c:	cc cc cc 
   2481f:	90                   	nop
   24820:	31 ff                	xor    %edi,%edi
   24822:	41 f7 db             	neg    %r11d
   24825:	48 89 c3             	mov    %rax,%rbx
   24828:	44 89 9c 24 a8 00 00 	mov    %r11d,0xa8(%rsp)
   2482f:	00 
   24830:	4d 89 e3             	mov    %r12,%r11
   24833:	4c 8b a4 24 e8 00 00 	mov    0xe8(%rsp),%r12
   2483a:	00 
   2483b:	eb 43                	jmp    24880 <_vfprintf_r+0x2f80>
   2483d:	0f 1f 00             	nopl   (%rax)
   24840:	4c 89 e6             	mov    %r12,%rsi
   24843:	66 66 66 66 66 2e 0f 	data32 data32 data32 data32 nopw %cs:0x0(%rax,%rax,1)
   2484a:	1f 84 00 00 00 00 00 
   24851:	66 66 66 66 66 66 2e 	data32 data32 data32 data32 data32 nopw %cs:0x0(%rax,%rax,1)
   24858:	0f 1f 84 00 00 00 00 
   2485f:	00 
   24860:	48 89 c8             	mov    %rcx,%rax
   24863:	49 f7 e0             	mul    %r8
   24866:	48 89 d1             	mov    %rdx,%rcx
   24869:	48 c1 e9 03          	shr    $0x3,%rcx
   2486d:	48 85 c9             	test   %rcx,%rcx
   24870:	0f 84 aa 02 00 00    	je     24b20 <_vfprintf_r+0x3220>
   24876:	49 89 f4             	mov    %rsi,%r12
   24879:	0f 1f 80 00 00 00 00 	nopl   0x0(%rax)
   24880:	48 89 c8             	mov    %rcx,%rax
   24883:	83 eb 01             	sub    $0x1,%ebx
   24886:	83 c7 01             	add    $0x1,%edi
   24889:	49 f7 e0             	mul    %r8
   2488c:	48 c1 ea 03          	shr    $0x3,%rdx
   24890:	48 8d 04 92          	lea    (%rdx,%rdx,4),%rax
   24894:	48 89 ca             	mov    %rcx,%rdx
   24897:	48 01 c0             	add    %rax,%rax
   2489a:	48 29 c2             	sub    %rax,%rdx
   2489d:	48 89 d0             	mov    %rdx,%rax
   248a0:	83 c0 30             	add    $0x30,%eax
   248a3:	45 85 c9             	test   %r9d,%r9d
   248a6:	89 db                	mov    %ebx,%ebx
   248a8:	41 88 04 1f          	mov    %al,(%r15,%rbx,1)
   248ac:	74 92                	je     24840 <_vfprintf_r+0x2f40>
   248ae:	45 89 e4             	mov    %r12d,%r12d
   248b1:	43 0f b6 04 27       	movzbl (%r15,%r12,1),%eax
   248b6:	0f be d0             	movsbl %al,%edx
   248b9:	39 d7                	cmp    %edx,%edi
   248bb:	0f 1f 44 00 00       	nopl   0x0(%rax,%rax,1)
   248c0:	0f 85 7a ff ff ff    	jne    24840 <_vfprintf_r+0x2f40>
   248c6:	3c 7f                	cmp    $0x7f,%al
   248c8:	0f 84 72 ff ff ff    	je     24840 <_vfprintf_r+0x2f40>
   248ce:	48 83 f9 09          	cmp    $0x9,%rcx
   248d2:	0f 86 68 ff ff ff    	jbe    24840 <_vfprintf_r+0x2f40>
   248d8:	03 9c 24 a8 00 00 00 	add    0xa8(%rsp),%ebx
   248df:	90                   	nop
   248e0:	8b b4 24 40 01 00 00 	mov    0x140(%rsp),%esi
   248e7:	8b 94 24 30 01 00 00 	mov    0x130(%rsp),%edx
   248ee:	48 89 8c 24 90 00 00 	mov    %rcx,0x90(%rsp)
   248f5:	00 
   248f6:	4c 89 84 24 80 00 00 	mov    %r8,0x80(%rsp)
   248fd:	00 
   248fe:	66 90                	xchg   %ax,%ax
   24900:	44 89 8c 24 a0 00 00 	mov    %r9d,0xa0(%rsp)
   24907:	00 
   24908:	4c 89 94 24 88 00 00 	mov    %r10,0x88(%rsp)
   2490f:	00 
   24910:	4c 89 9c 24 98 00 00 	mov    %r11,0x98(%rsp)
   24917:	00 
   24918:	89 df                	mov    %ebx,%edi
   2491a:	90                   	nop
   2491b:	e8 a0 c7 00 00       	callq  310c0 <strncpy>
   24920:	41 8d 74 24 01       	lea    0x1(%r12),%esi
   24925:	31 ff                	xor    %edi,%edi
   24927:	48 8b 8c 24 90 00 00 	mov    0x90(%rsp),%rcx
   2492e:	00 
   2492f:	4c 8b 84 24 80 00 00 	mov    0x80(%rsp),%r8
   24936:	00 
   24937:	44 8b 8c 24 a0 00 00 	mov    0xa0(%rsp),%r9d
   2493e:	00 
   2493f:	90                   	nop
   24940:	89 f6                	mov    %esi,%esi
   24942:	41 80 3c 37 00       	cmpb   $0x0,(%r15,%rsi,1)
   24947:	4c 8b 94 24 88 00 00 	mov    0x88(%rsp),%r10
   2494e:	00 
   2494f:	4c 8b 9c 24 98 00 00 	mov    0x98(%rsp),%r11
   24956:	00 
   24957:	0f 85 03 ff ff ff    	jne    24860 <_vfprintf_r+0x2f60>
   2495d:	0f 1f 00             	nopl   (%rax)
   24960:	e9 db fe ff ff       	jmpq   24840 <_vfprintf_r+0x2f40>
   24965:	66 66 66 2e 0f 1f 84 	data32 data32 nopw %cs:0x0(%rax,%rax,1)
   2496c:	00 00 00 00 00 
   24971:	66 66 66 66 66 66 2e 	data32 data32 data32 data32 data32 nopw %cs:0x0(%rax,%rax,1)
   24978:	0f 1f 84 00 00 00 00 
   2497f:	00 
   24980:	4d 89 ec             	mov    %r13,%r12
   24983:	44 8b ac 24 a8 00 00 	mov    0xa8(%rsp),%r13d
   2498a:	00 
   2498b:	66 0f 1f 44 00 00    	nopw   0x0(%rax,%rax,1)
   24991:	66 66 66 66 66 66 2e 	data32 data32 data32 data32 data32 nopw %cs:0x0(%rax,%rax,1)
   24998:	0f 1f 84 00 00 00 00 
   2499f:	00 
   249a0:	89 c0                	mov    %eax,%eax
   249a2:	41 89 5c 07 04       	mov    %ebx,0x4(%r15,%rax,1)
   249a7:	89 c0                	mov    %eax,%eax
   249a9:	41 c7 04 07 e0 05 02 	movl   $0x100205e0,(%r15,%rax,1)
   249b0:	10 
   249b1:	01 9c 24 18 02 00 00 	add    %ebx,0x218(%rsp)
   249b8:	e9 03 f0 ff ff       	jmpq   239c0 <_vfprintf_r+0x20c0>
   249bd:	0f 1f 00             	nopl   (%rax)
   249c0:	8d 8c 24 40 02 00 00 	lea    0x240(%rsp),%ecx
   249c7:	ba 08 00 00 00       	mov    $0x8,%edx
   249cc:	31 f6                	xor    %esi,%esi
   249ce:	89 cf                	mov    %ecx,%edi
   249d0:	48 89 8c 24 90 00 00 	mov    %rcx,0x90(%rsp)
   249d7:	00 
   249d8:	0f 1f 00             	nopl   (%rax)
   249db:	e8 20 cc ff ff       	callq  21600 <memset>
   249e0:	48 8b 84 24 c8 00 00 	mov    0xc8(%rsp),%rax
   249e7:	00 
   249e8:	48 8b 8c 24 90 00 00 	mov    0x90(%rsp),%rcx
   249ef:	00 
   249f0:	89 c0                	mov    %eax,%eax
   249f2:	41 8b 14 07          	mov    (%r15,%rax,1),%edx
   249f6:	83 fa 2f             	cmp    $0x2f,%edx
   249f9:	0f 86 81 0d 00 00    	jbe    25780 <_vfprintf_r+0x3e80>
   249ff:	90                   	nop
   24a00:	48 8b 94 24 c8 00 00 	mov    0xc8(%rsp),%rdx
   24a07:	00 
   24a08:	48 8b b4 24 c8 00 00 	mov    0xc8(%rsp),%rsi
   24a0f:	00 
   24a10:	89 d2                	mov    %edx,%edx
   24a12:	41 8b 44 17 08       	mov    0x8(%r15,%rdx,1),%eax
   24a17:	8d 50 08             	lea    0x8(%rax),%edx
   24a1a:	66 0f 1f 44 00 00    	nopw   0x0(%rax,%rax,1)
   24a20:	89 f6                	mov    %esi,%esi
   24a22:	41 89 54 37 08       	mov    %edx,0x8(%r15,%rsi,1)
   24a27:	66 2e 0f 1f 84 00 00 	nopw   %cs:0x0(%rax,%rax,1)
   24a2e:	00 00 00 
   24a31:	66 66 66 66 66 66 2e 	data32 data32 data32 data32 data32 nopw %cs:0x0(%rax,%rax,1)
   24a38:	0f 1f 84 00 00 00 00 
   24a3f:	00 
   24a40:	89 c0                	mov    %eax,%eax
   24a42:	41 8b 14 07          	mov    (%r15,%rax,1),%edx
   24a46:	8b 74 24 68          	mov    0x68(%rsp),%esi
   24a4a:	44 89 f7             	mov    %r14d,%edi
   24a4d:	66 66 66 66 66 2e 0f 	data32 data32 data32 data32 nopw %cs:0x0(%rax,%rax,1)
   24a54:	1f 84 00 00 00 00 00 
   24a5b:	e8 a0 2c 00 00       	callq  27700 <_wcrtomb_r>
   24a60:	83 f8 ff             	cmp    $0xffffffff,%eax
   24a63:	89 84 24 c4 00 00 00 	mov    %eax,0xc4(%rsp)
   24a6a:	0f 84 30 27 00 00    	je     271a0 <_vfprintf_r+0x58a0>
   24a70:	90                   	nop
   24a71:	66 66 66 66 66 66 2e 	data32 data32 data32 data32 data32 nopw %cs:0x0(%rax,%rax,1)
   24a78:	0f 1f 84 00 00 00 00 
   24a7f:	00 
   24a80:	8b 94 24 c4 00 00 00 	mov    0xc4(%rsp),%edx
   24a87:	b8 00 00 00 00       	mov    $0x0,%eax
   24a8c:	c6 84 24 8f 02 00 00 	movb   $0x0,0x28f(%rsp)
   24a93:	00 
   24a94:	85 d2                	test   %edx,%edx
   24a96:	0f 49 84 24 c4 00 00 	cmovns 0xc4(%rsp),%eax
   24a9d:	00 
   24a9e:	66 90                	xchg   %ax,%ax
   24aa0:	8d 94 24 60 01 00 00 	lea    0x160(%rsp),%edx
   24aa7:	48 89 94 24 a8 00 00 	mov    %rdx,0xa8(%rsp)
   24aae:	00 
   24aaf:	89 84 24 b0 00 00 00 	mov    %eax,0xb0(%rsp)
   24ab6:	31 c0                	xor    %eax,%eax
   24ab8:	0f 1f 84 00 00 00 00 	nopl   0x0(%rax,%rax,1)
   24abf:	00 
   24ac0:	48 c7 84 24 e0 00 00 	movq   $0x0,0xe0(%rsp)
   24ac7:	00 00 00 00 00 
   24acc:	c7 84 24 fc 00 00 00 	movl   $0x0,0xfc(%rsp)
   24ad3:	00 00 00 00 
   24ad7:	66 0f 1f 84 00 00 00 	nopw   0x0(%rax,%rax,1)
   24ade:	00 00 
   24ae0:	c7 84 24 08 01 00 00 	movl   $0x0,0x108(%rsp)
   24ae7:	00 00 00 00 
   24aeb:	c7 84 24 20 01 00 00 	movl   $0x0,0x120(%rsp)
   24af2:	00 00 00 00 
   24af6:	66 2e 0f 1f 84 00 00 	nopw   %cs:0x0(%rax,%rax,1)
   24afd:	00 00 00 
   24b00:	c7 84 24 1c 01 00 00 	movl   $0x0,0x11c(%rsp)
   24b07:	00 00 00 00 
   24b0b:	e9 10 d3 ff ff       	jmpq   21e20 <_vfprintf_r+0x520>
   24b10:	90                   	nop
   24b11:	66 66 66 66 66 66 2e 	data32 data32 data32 data32 data32 nopw %cs:0x0(%rax,%rax,1)
   24b18:	0f 1f 84 00 00 00 00 
   24b1f:	00 
   24b20:	48 89 9c 24 a8 00 00 	mov    %rbx,0xa8(%rsp)
   24b27:	00 
   24b28:	8b 8c 24 00 01 00 00 	mov    0x100(%rsp),%ecx
   24b2f:	4c 89 d3             	mov    %r10,%rbx
   24b32:	2b 8c 24 a8 00 00 00 	sub    0xa8(%rsp),%ecx
   24b39:	4d 89 dc             	mov    %r11,%r12
   24b3c:	0f 1f 40 00          	nopl   0x0(%rax)
   24b40:	89 bc 24 0c 01 00 00 	mov    %edi,0x10c(%rsp)
   24b47:	44 8b 94 24 b0 00 00 	mov    0xb0(%rsp),%r10d
   24b4e:	00 
   24b4f:	89 8c 24 c4 00 00 00 	mov    %ecx,0xc4(%rsp)
   24b56:	e9 e5 dd ff ff       	jmpq   22940 <_vfprintf_r+0x1040>
   24b5b:	0f 1f 44 00 00       	nopl   0x0(%rax,%rax,1)
   24b60:	8b b4 24 b8 00 00 00 	mov    0xb8(%rsp),%esi
   24b67:	8d 94 24 10 02 00 00 	lea    0x210(%rsp),%edx
   24b6e:	44 89 f7             	mov    %r14d,%edi
   24b71:	66 2e 0f 1f 84 00 00 	nopw   %cs:0x0(%rax,%rax,1)
   24b78:	00 00 00 
   24b7b:	e8 60 ca 00 00       	callq  315e0 <__sprint_r>
   24b80:	85 c0                	test   %eax,%eax
   24b82:	0f 85 58 e8 ff ff    	jne    233e0 <_vfprintf_r+0x1ae0>
   24b88:	8d 9c 24 d0 01 00 00 	lea    0x1d0(%rsp),%ebx
   24b8f:	e9 0c d5 ff ff       	jmpq   220a0 <_vfprintf_r+0x7a0>
   24b94:	66 66 66 2e 0f 1f 84 	data32 data32 nopw %cs:0x0(%rax,%rax,1)
   24b9b:	00 00 00 00 00 
   24ba0:	8b b4 24 b8 00 00 00 	mov    0xb8(%rsp),%esi
   24ba7:	8d 94 24 10 02 00 00 	lea    0x210(%rsp),%edx
   24bae:	44 89 f7             	mov    %r14d,%edi
   24bb1:	66 2e 0f 1f 84 00 00 	nopw   %cs:0x0(%rax,%rax,1)
   24bb8:	00 00 00 
   24bbb:	e8 20 ca 00 00       	callq  315e0 <__sprint_r>
   24bc0:	85 c0                	test   %eax,%eax
   24bc2:	0f 85 18 e8 ff ff    	jne    233e0 <_vfprintf_r+0x1ae0>
   24bc8:	8d 84 24 d0 01 00 00 	lea    0x1d0(%rsp),%eax
   24bcf:	e9 0c ee ff ff       	jmpq   239e0 <_vfprintf_r+0x20e0>
   24bd4:	66 66 66 2e 0f 1f 84 	data32 data32 nopw %cs:0x0(%rax,%rax,1)
   24bdb:	00 00 00 00 00 
   24be0:	8b 54 24 20          	mov    0x20(%rsp),%edx
   24be4:	44 89 e6             	mov    %r12d,%esi
   24be7:	44 89 f7             	mov    %r14d,%edi
   24bea:	66 90                	xchg   %ax,%ax
   24bec:	66 66 66 66 66 66 2e 	data32 data32 data32 data32 data32 nopw %cs:0x0(%rax,%rax,1)
   24bf3:	0f 1f 84 00 00 00 00 
   24bfa:	00 
   24bfb:	e8 e0 c9 00 00       	callq  315e0 <__sprint_r>
   24c00:	85 c0                	test   %eax,%eax
   24c02:	0f 85 d8 e7 ff ff    	jne    233e0 <_vfprintf_r+0x1ae0>
   24c08:	8d 84 24 d0 01 00 00 	lea    0x1d0(%rsp),%eax
   24c0f:	e9 4c f6 ff ff       	jmpq   24260 <_vfprintf_r+0x2960>
   24c14:	66 66 66 2e 0f 1f 84 	data32 data32 nopw %cs:0x0(%rax,%rax,1)
   24c1b:	00 00 00 00 00 
   24c20:	3c 30                	cmp    $0x30,%al
   24c22:	0f 84 58 14 00 00    	je     26080 <_vfprintf_r+0x4780>
   24c28:	8b 84 24 a8 00 00 00 	mov    0xa8(%rsp),%eax
   24c2f:	83 e8 01             	sub    $0x1,%eax
   24c32:	48 89 84 24 a8 00 00 	mov    %rax,0xa8(%rsp)
   24c39:	00 
   24c3a:	66 0f 1f 44 00 00    	nopw   0x0(%rax,%rax,1)
   24c40:	89 c0                	mov    %eax,%eax
   24c42:	41 c6 04 07 30       	movb   $0x30,(%r15,%rax,1)
   24c47:	8b 94 24 00 01 00 00 	mov    0x100(%rsp),%edx
   24c4e:	48 8b b4 24 e8 00 00 	mov    0xe8(%rsp),%rsi
   24c55:	00 
   24c56:	29 c2                	sub    %eax,%edx
   24c58:	89 94 24 c4 00 00 00 	mov    %edx,0xc4(%rsp)
   24c5f:	90                   	nop
   24c60:	e9 db dc ff ff       	jmpq   22940 <_vfprintf_r+0x1040>
   24c65:	66 66 66 2e 0f 1f 84 	data32 data32 nopw %cs:0x0(%rax,%rax,1)
   24c6c:	00 00 00 00 00 
   24c71:	66 66 66 66 66 66 2e 	data32 data32 data32 data32 data32 nopw %cs:0x0(%rax,%rax,1)
   24c78:	0f 1f 84 00 00 00 00 
   24c7f:	00 
   24c80:	48 f7 d9             	neg    %rcx
   24c83:	c6 84 24 8f 02 00 00 	movb   $0x2d,0x28f(%rsp)
   24c8a:	2d 
   24c8b:	b8 01 00 00 00       	mov    $0x1,%eax
   24c90:	40 0f 95 c6          	setne  %sil
   24c94:	e9 e7 db ff ff       	jmpq   22880 <_vfprintf_r+0xf80>
   24c99:	0f 1f 80 00 00 00 00 	nopl   0x0(%rax)
   24ca0:	48 8b b4 24 c8 00 00 	mov    0xc8(%rsp),%rsi
   24ca7:	00 
   24ca8:	89 f6                	mov    %esi,%esi
   24caa:	41 8b 54 37 08       	mov    0x8(%r15,%rsi,1),%edx
   24caf:	8d 42 08             	lea    0x8(%rdx),%eax
   24cb2:	89 f6                	mov    %esi,%esi
   24cb4:	41 89 44 37 08       	mov    %eax,0x8(%r15,%rsi,1)
   24cb9:	e9 42 de ff ff       	jmpq   22b00 <_vfprintf_r+0x1200>
   24cbe:	66 90                	xchg   %ax,%ax
   24cc0:	41 f6 c5 40          	test   $0x40,%r13b
   24cc4:	0f 85 d6 0c 00 00    	jne    259a0 <_vfprintf_r+0x40a0>
   24cca:	41 f7 c5 00 02 00 00 	test   $0x200,%r13d
   24cd1:	0f 84 69 15 00 00    	je     26240 <_vfprintf_r+0x4940>
   24cd7:	48 8b 84 24 c8 00 00 	mov    0xc8(%rsp),%rax
   24cde:	00 
   24cdf:	90                   	nop
   24ce0:	89 c0                	mov    %eax,%eax
   24ce2:	41 8b 14 07          	mov    (%r15,%rax,1),%edx
   24ce6:	83 fa 2f             	cmp    $0x2f,%edx
   24ce9:	0f 87 b1 1c 00 00    	ja     269a0 <_vfprintf_r+0x50a0>
   24cef:	48 89 c1             	mov    %rax,%rcx
   24cf2:	89 c0                	mov    %eax,%eax
   24cf4:	41 8b 44 07 0c       	mov    0xc(%r15,%rax,1),%eax
   24cf9:	01 d0                	add    %edx,%eax
   24cfb:	83 c2 08             	add    $0x8,%edx
   24cfe:	66 90                	xchg   %ax,%ax
   24d00:	89 c9                	mov    %ecx,%ecx
   24d02:	41 89 14 0f          	mov    %edx,(%r15,%rcx,1)
   24d06:	66 66 2e 0f 1f 84 00 	data32 nopw %cs:0x0(%rax,%rax,1)
   24d0d:	00 00 00 00 
   24d11:	66 66 66 66 66 66 2e 	data32 data32 data32 data32 data32 nopw %cs:0x0(%rax,%rax,1)
   24d18:	0f 1f 84 00 00 00 00 
   24d1f:	00 
   24d20:	89 c0                	mov    %eax,%eax
   24d22:	41 0f b6 0c 07       	movzbl (%r15,%rax,1),%ecx
   24d27:	b8 01 00 00 00       	mov    $0x1,%eax
   24d2c:	48 85 c9             	test   %rcx,%rcx
   24d2f:	40 0f 95 c6          	setne  %sil
   24d33:	e9 28 db ff ff       	jmpq   22860 <_vfprintf_r+0xf60>
   24d38:	0f 1f 84 00 00 00 00 	nopl   0x0(%rax,%rax,1)
   24d3f:	00 
   24d40:	48 8b b4 24 c8 00 00 	mov    0xc8(%rsp),%rsi
   24d47:	00 
   24d48:	89 f6                	mov    %esi,%esi
   24d4a:	41 8b 54 37 08       	mov    0x8(%r15,%rsi,1),%edx
   24d4f:	8d 42 08             	lea    0x8(%rdx),%eax
   24d52:	89 f6                	mov    %esi,%esi
   24d54:	41 89 44 37 08       	mov    %eax,0x8(%r15,%rsi,1)
   24d59:	e9 82 df ff ff       	jmpq   22ce0 <_vfprintf_r+0x13e0>
   24d5e:	66 90                	xchg   %ax,%ax
   24d60:	48 8b b4 24 c8 00 00 	mov    0xc8(%rsp),%rsi
   24d67:	00 
   24d68:	89 f6                	mov    %esi,%esi
   24d6a:	41 8b 54 37 08       	mov    0x8(%r15,%rsi,1),%edx
   24d6f:	8d 42 08             	lea    0x8(%rdx),%eax
   24d72:	89 f6                	mov    %esi,%esi
   24d74:	41 89 44 37 08       	mov    %eax,0x8(%r15,%rsi,1)
   24d79:	e9 82 da ff ff       	jmpq   22800 <_vfprintf_r+0xf00>
   24d7e:	66 90                	xchg   %ax,%ax
   24d80:	48 8b 84 24 c8 00 00 	mov    0xc8(%rsp),%rax
   24d87:	00 
   24d88:	48 8b b4 24 c8 00 00 	mov    0xc8(%rsp),%rsi
   24d8f:	00 
   24d90:	89 c0                	mov    %eax,%eax
   24d92:	41 8b 4c 07 08       	mov    0x8(%r15,%rax,1),%ecx
   24d97:	8d 41 08             	lea    0x8(%rcx),%eax
   24d9a:	66 0f 1f 44 00 00    	nopw   0x0(%rax,%rax,1)
   24da0:	89 f6                	mov    %esi,%esi
   24da2:	41 89 44 37 08       	mov    %eax,0x8(%r15,%rsi,1)
   24da7:	e9 94 d7 ff ff       	jmpq   22540 <_vfprintf_r+0xc40>
   24dac:	0f 1f 44 00 00       	nopl   0x0(%rax,%rax,1)
   24db1:	66 66 66 66 66 66 2e 	data32 data32 data32 data32 data32 nopw %cs:0x0(%rax,%rax,1)
   24db8:	0f 1f 84 00 00 00 00 
   24dbf:	00 
   24dc0:	8b 9c 24 e8 00 00 00 	mov    0xe8(%rsp),%ebx
   24dc7:	83 ac 24 20 01 00 00 	subl   $0x1,0x120(%rsp)
   24dce:	01 
   24dcf:	83 eb 01             	sub    $0x1,%ebx
   24dd2:	48 89 9c 24 e8 00 00 	mov    %rbx,0xe8(%rsp)
   24dd9:	00 
   24dda:	e9 21 f4 ff ff       	jmpq   24200 <_vfprintf_r+0x2900>
   24ddf:	90                   	nop
   24de0:	41 f6 c5 10          	test   $0x10,%r13b
   24de4:	0f 85 56 0b 00 00    	jne    25940 <_vfprintf_r+0x4040>
   24dea:	41 f6 c5 40          	test   $0x40,%r13b
   24dee:	0f 84 ac 14 00 00    	je     262a0 <_vfprintf_r+0x49a0>
   24df4:	48 8b 8c 24 c8 00 00 	mov    0xc8(%rsp),%rcx
   24dfb:	00 
   24dfc:	0f 1f 40 00          	nopl   0x0(%rax)
   24e00:	89 c9                	mov    %ecx,%ecx
   24e02:	41 8b 14 0f          	mov    (%r15,%rcx,1),%edx
   24e06:	83 fa 2f             	cmp    $0x2f,%edx
   24e09:	0f 87 11 1c 00 00    	ja     26a20 <_vfprintf_r+0x5120>
   24e0f:	89 c9                	mov    %ecx,%ecx
   24e11:	41 8b 44 0f 0c       	mov    0xc(%r15,%rcx,1),%eax
   24e16:	01 d0                	add    %edx,%eax
   24e18:	83 c2 08             	add    $0x8,%edx
   24e1b:	0f 1f 44 00 00       	nopl   0x0(%rax,%rax,1)
   24e20:	89 c9                	mov    %ecx,%ecx
   24e22:	41 89 14 0f          	mov    %edx,(%r15,%rcx,1)
   24e26:	66 66 2e 0f 1f 84 00 	data32 nopw %cs:0x0(%rax,%rax,1)
   24e2d:	00 00 00 00 
   24e31:	66 66 66 66 66 66 2e 	data32 data32 data32 data32 data32 nopw %cs:0x0(%rax,%rax,1)
   24e38:	0f 1f 84 00 00 00 00 
   24e3f:	00 
   24e40:	89 c0                	mov    %eax,%eax
   24e42:	41 8b 04 07          	mov    (%r15,%rax,1),%eax
   24e46:	0f b7 94 24 d0 00 00 	movzwl 0xd0(%rsp),%edx
   24e4d:	00 
   24e4e:	89 c0                	mov    %eax,%eax
   24e50:	66 41 89 14 07       	mov    %dx,(%r15,%rax,1)
   24e55:	e9 46 d6 ff ff       	jmpq   224a0 <_vfprintf_r+0xba0>
   24e5a:	66 0f 1f 44 00 00    	nopw   0x0(%rax,%rax,1)
   24e60:	48 8b b4 24 c8 00 00 	mov    0xc8(%rsp),%rsi
   24e67:	00 
   24e68:	89 f6                	mov    %esi,%esi
   24e6a:	41 8b 54 37 08       	mov    0x8(%r15,%rsi,1),%edx
   24e6f:	8d 42 08             	lea    0x8(%rdx),%eax
   24e72:	89 f6                	mov    %esi,%esi
   24e74:	41 89 44 37 08       	mov    %eax,0x8(%r15,%rsi,1)
   24e79:	e9 42 e0 ff ff       	jmpq   22ec0 <_vfprintf_r+0x15c0>
   24e7e:	66 90                	xchg   %ax,%ax
   24e80:	41 f6 c5 40          	test   $0x40,%r13b
   24e84:	0f 85 f6 09 00 00    	jne    25880 <_vfprintf_r+0x3f80>
   24e8a:	41 f7 c5 00 02 00 00 	test   $0x200,%r13d
   24e91:	0f 84 49 13 00 00    	je     261e0 <_vfprintf_r+0x48e0>
   24e97:	48 8b 84 24 c8 00 00 	mov    0xc8(%rsp),%rax
   24e9e:	00 
   24e9f:	90                   	nop
   24ea0:	89 c0                	mov    %eax,%eax
   24ea2:	41 8b 14 07          	mov    (%r15,%rax,1),%edx
   24ea6:	83 fa 2f             	cmp    $0x2f,%edx
   24ea9:	0f 87 31 1b 00 00    	ja     269e0 <_vfprintf_r+0x50e0>
   24eaf:	48 89 c1             	mov    %rax,%rcx
   24eb2:	89 c0                	mov    %eax,%eax
   24eb4:	41 8b 44 07 0c       	mov    0xc(%r15,%rax,1),%eax
   24eb9:	01 d0                	add    %edx,%eax
   24ebb:	83 c2 08             	add    $0x8,%edx
   24ebe:	66 90                	xchg   %ax,%ax
   24ec0:	89 c9                	mov    %ecx,%ecx
   24ec2:	41 89 14 0f          	mov    %edx,(%r15,%rcx,1)
   24ec6:	66 66 2e 0f 1f 84 00 	data32 nopw %cs:0x0(%rax,%rax,1)
   24ecd:	00 00 00 00 
   24ed1:	66 66 66 66 66 66 2e 	data32 data32 data32 data32 data32 nopw %cs:0x0(%rax,%rax,1)
   24ed8:	0f 1f 84 00 00 00 00 
   24edf:	00 
   24ee0:	89 c0                	mov    %eax,%eax
   24ee2:	49 0f be 0c 07       	movsbq (%r15,%rax,1),%rcx
   24ee7:	e9 34 dc ff ff       	jmpq   22b20 <_vfprintf_r+0x1220>
   24eec:	0f 1f 44 00 00       	nopl   0x0(%rax,%rax,1)
   24ef1:	66 66 66 66 66 66 2e 	data32 data32 data32 data32 data32 nopw %cs:0x0(%rax,%rax,1)
   24ef8:	0f 1f 84 00 00 00 00 
   24eff:	00 
   24f00:	48 8b b4 24 c8 00 00 	mov    0xc8(%rsp),%rsi
   24f07:	00 
   24f08:	89 f6                	mov    %esi,%esi
   24f0a:	41 8b 54 37 08       	mov    0x8(%r15,%rsi,1),%edx
   24f0f:	8d 42 08             	lea    0x8(%rdx),%eax
   24f12:	89 f6                	mov    %esi,%esi
   24f14:	41 89 44 37 08       	mov    %eax,0x8(%r15,%rsi,1)
   24f19:	e9 82 dc ff ff       	jmpq   22ba0 <_vfprintf_r+0x12a0>
   24f1e:	66 90                	xchg   %ax,%ax
   24f20:	48 8b b4 24 c8 00 00 	mov    0xc8(%rsp),%rsi
   24f27:	00 
   24f28:	89 f6                	mov    %esi,%esi
   24f2a:	41 8b 54 37 08       	mov    0x8(%r15,%rsi,1),%edx
   24f2f:	8d 42 08             	lea    0x8(%rdx),%eax
   24f32:	89 f6                	mov    %esi,%esi
   24f34:	41 89 44 37 08       	mov    %eax,0x8(%r15,%rsi,1)
   24f39:	e9 22 de ff ff       	jmpq   22d60 <_vfprintf_r+0x1460>
   24f3e:	66 90                	xchg   %ax,%ax
   24f40:	41 f6 c5 40          	test   $0x40,%r13b
   24f44:	0f 85 96 09 00 00    	jne    258e0 <_vfprintf_r+0x3fe0>
   24f4a:	41 f7 c5 00 02 00 00 	test   $0x200,%r13d
   24f51:	0f 84 c9 11 00 00    	je     26120 <_vfprintf_r+0x4820>
   24f57:	48 8b 84 24 c8 00 00 	mov    0xc8(%rsp),%rax
   24f5e:	00 
