
hello.nexe:     file format elf32-i386


Disassembly of section .init:

00020000 <_init>:
   20000:	55                   	push   %ebp
   20001:	89 e5                	mov    %esp,%ebp
   20003:	eb 1b                	jmp    20020 <_init+0x20>
   20005:	90                   	nop
   20006:	90                   	nop
   20007:	90                   	nop
   20008:	90                   	nop
   20009:	90                   	nop
   2000a:	90                   	nop
   2000b:	90                   	nop
   2000c:	90                   	nop
   2000d:	90                   	nop
   2000e:	90                   	nop
   2000f:	90                   	nop
   20010:	90                   	nop
   20011:	90                   	nop
   20012:	90                   	nop
   20013:	90                   	nop
   20014:	90                   	nop
   20015:	90                   	nop
   20016:	90                   	nop
   20017:	90                   	nop
   20018:	90                   	nop
   20019:	90                   	nop
   2001a:	90                   	nop
   2001b:	90                   	nop
   2001c:	90                   	nop
   2001d:	90                   	nop
   2001e:	90                   	nop
   2001f:	90                   	nop
   20020:	eb 19                	jmp    2003b <_init+0x3b>
   20022:	90                   	nop
   20023:	90                   	nop
   20024:	90                   	nop
   20025:	90                   	nop
   20026:	90                   	nop
   20027:	90                   	nop
   20028:	90                   	nop
   20029:	90                   	nop
   2002a:	90                   	nop
   2002b:	90                   	nop
   2002c:	90                   	nop
   2002d:	90                   	nop
   2002e:	90                   	nop
   2002f:	90                   	nop
   20030:	90                   	nop
   20031:	90                   	nop
   20032:	90                   	nop
   20033:	90                   	nop
   20034:	90                   	nop
   20035:	90                   	nop
   20036:	90                   	nop
   20037:	90                   	nop
   20038:	90                   	nop
   20039:	90                   	nop
   2003a:	90                   	nop
   2003b:	e8 20 01 00 00       	call   20160 <frame_dummy>
   20040:	eb 19                	jmp    2005b <_init+0x5b>
   20042:	90                   	nop
   20043:	90                   	nop
   20044:	90                   	nop
   20045:	90                   	nop
   20046:	90                   	nop
   20047:	90                   	nop
   20048:	90                   	nop
   20049:	90                   	nop
   2004a:	90                   	nop
   2004b:	90                   	nop
   2004c:	90                   	nop
   2004d:	90                   	nop
   2004e:	90                   	nop
   2004f:	90                   	nop
   20050:	90                   	nop
   20051:	90                   	nop
   20052:	90                   	nop
   20053:	90                   	nop
   20054:	90                   	nop
   20055:	90                   	nop
   20056:	90                   	nop
   20057:	90                   	nop
   20058:	90                   	nop
   20059:	90                   	nop
   2005a:	90                   	nop
   2005b:	e8 a0 aa 01 00       	call   3ab00 <__do_global_ctors_aux>
   20060:	c9                   	leave  
   20061:	59                   	pop    %ecx
   20062:	83 e1 e0             	and    $0xffffffe0,%ecx
   20065:	ff e1                	jmp    *%ecx
   20067:	f4                   	hlt    
   20068:	f4                   	hlt    
   20069:	f4                   	hlt    
   2006a:	f4                   	hlt    
   2006b:	f4                   	hlt    
   2006c:	f4                   	hlt    
   2006d:	f4                   	hlt    
   2006e:	f4                   	hlt    
   2006f:	f4                   	hlt    
   20070:	f4                   	hlt    
   20071:	f4                   	hlt    
   20072:	f4                   	hlt    
   20073:	f4                   	hlt    
   20074:	f4                   	hlt    
   20075:	f4                   	hlt    
   20076:	f4                   	hlt    
   20077:	f4                   	hlt    
   20078:	f4                   	hlt    
   20079:	f4                   	hlt    
   2007a:	f4                   	hlt    
   2007b:	f4                   	hlt    
   2007c:	f4                   	hlt    
   2007d:	f4                   	hlt    
   2007e:	f4                   	hlt    
   2007f:	f4                   	hlt    

Disassembly of section .text:

00020080 <__do_global_dtors_aux>:
   20080:	55                   	push   %ebp
   20081:	89 e5                	mov    %esp,%ebp
   20083:	53                   	push   %ebx
   20084:	83 ec 14             	sub    $0x14,%esp
   20087:	80 3d a0 22 03 10 00 	cmpb   $0x0,0x100322a0
   2008e:	0f 85 ac 00 00 00    	jne    20140 <__do_global_dtors_aux+0xc0>
   20094:	a1 a4 22 03 10       	mov    0x100322a4,%eax
   20099:	bb 9c 1b 03 10       	mov    $0x10031b9c,%ebx
   2009e:	66 90                	xchg   %ax,%ax
   200a0:	81 eb 98 1b 03 10    	sub    $0x10031b98,%ebx
   200a6:	c1 fb 02             	sar    $0x2,%ebx
   200a9:	83 eb 01             	sub    $0x1,%ebx
   200ac:	39 d8                	cmp    %ebx,%eax
   200ae:	73 50                	jae    20100 <__do_global_dtors_aux+0x80>
   200b0:	eb 0e                	jmp    200c0 <__do_global_dtors_aux+0x40>
   200b2:	90                   	nop
   200b3:	90                   	nop
   200b4:	90                   	nop
   200b5:	90                   	nop
   200b6:	90                   	nop
   200b7:	90                   	nop
   200b8:	90                   	nop
   200b9:	90                   	nop
   200ba:	90                   	nop
   200bb:	90                   	nop
   200bc:	90                   	nop
   200bd:	90                   	nop
   200be:	90                   	nop
   200bf:	90                   	nop
   200c0:	83 c0 01             	add    $0x1,%eax
   200c3:	a3 a4 22 03 10       	mov    %eax,0x100322a4
   200c8:	8b 04 85 98 1b 03 10 	mov    0x10031b98(,%eax,4),%eax
   200cf:	8d b6 00 00 00 00    	lea    0x0(%esi),%esi
   200d5:	8d bf 00 00 00 00    	lea    0x0(%edi),%edi
   200db:	83 e0 e0             	and    $0xffffffe0,%eax
   200de:	ff d0                	call   *%eax
   200e0:	a1 a4 22 03 10       	mov    0x100322a4,%eax
   200e5:	39 d8                	cmp    %ebx,%eax
   200e7:	72 d7                	jb     200c0 <__do_global_dtors_aux+0x40>
   200e9:	eb 15                	jmp    20100 <__do_global_dtors_aux+0x80>
   200eb:	90                   	nop
   200ec:	90                   	nop
   200ed:	90                   	nop
   200ee:	90                   	nop
   200ef:	90                   	nop
   200f0:	90                   	nop
   200f1:	90                   	nop
   200f2:	90                   	nop
   200f3:	90                   	nop
   200f4:	90                   	nop
   200f5:	90                   	nop
   200f6:	90                   	nop
   200f7:	90                   	nop
   200f8:	90                   	nop
   200f9:	90                   	nop
   200fa:	90                   	nop
   200fb:	90                   	nop
   200fc:	90                   	nop
   200fd:	90                   	nop
   200fe:	90                   	nop
   200ff:	90                   	nop
   20100:	b8 00 00 00 00       	mov    $0x0,%eax
   20105:	85 c0                	test   %eax,%eax
   20107:	74 17                	je     20120 <__do_global_dtors_aux+0xa0>
   20109:	c7 04 24 c0 0e 02 10 	movl   $0x10020ec0,(%esp)
   20110:	8d 74 26 00          	lea    0x0(%esi,%eiz,1),%esi
   20114:	8d bc 27 00 00 00 00 	lea    0x0(%edi,%eiz,1),%edi
   2011b:	e8 e0 fe fd ff       	call   0 <_impure_ptr>
   20120:	c6 05 a0 22 03 10 01 	movb   $0x1,0x100322a0
   20127:	eb 17                	jmp    20140 <__do_global_dtors_aux+0xc0>
   20129:	90                   	nop
   2012a:	90                   	nop
   2012b:	90                   	nop
   2012c:	90                   	nop
   2012d:	90                   	nop
   2012e:	90                   	nop
   2012f:	90                   	nop
   20130:	90                   	nop
   20131:	90                   	nop
   20132:	90                   	nop
   20133:	90                   	nop
   20134:	90                   	nop
   20135:	90                   	nop
   20136:	90                   	nop
   20137:	90                   	nop
   20138:	90                   	nop
   20139:	90                   	nop
   2013a:	90                   	nop
   2013b:	90                   	nop
   2013c:	90                   	nop
   2013d:	90                   	nop
   2013e:	90                   	nop
   2013f:	90                   	nop
   20140:	83 c4 14             	add    $0x14,%esp
   20143:	5b                   	pop    %ebx
   20144:	5d                   	pop    %ebp
   20145:	59                   	pop    %ecx
   20146:	83 e1 e0             	and    $0xffffffe0,%ecx
   20149:	ff e1                	jmp    *%ecx
   2014b:	eb 13                	jmp    20160 <frame_dummy>
   2014d:	90                   	nop
   2014e:	90                   	nop
   2014f:	90                   	nop
   20150:	90                   	nop
   20151:	90                   	nop
   20152:	90                   	nop
   20153:	90                   	nop
   20154:	90                   	nop
   20155:	90                   	nop
   20156:	90                   	nop
   20157:	90                   	nop
   20158:	90                   	nop
   20159:	90                   	nop
   2015a:	90                   	nop
   2015b:	90                   	nop
   2015c:	90                   	nop
   2015d:	90                   	nop
   2015e:	90                   	nop
   2015f:	90                   	nop

00020160 <frame_dummy>:
   20160:	55                   	push   %ebp
   20161:	b8 00 00 00 00       	mov    $0x0,%eax
   20166:	89 e5                	mov    %esp,%ebp
   20168:	83 ec 18             	sub    $0x18,%esp
   2016b:	85 c0                	test   %eax,%eax
   2016d:	74 31                	je     201a0 <frame_dummy+0x40>
   2016f:	c7 44 24 04 a8 22 03 	movl   $0x100322a8,0x4(%esp)
   20176:	10 
   20177:	c7 04 24 c0 0e 02 10 	movl   $0x10020ec0,(%esp)
   2017e:	66 90                	xchg   %ax,%ax
   20180:	eb 19                	jmp    2019b <frame_dummy+0x3b>
   20182:	90                   	nop
   20183:	90                   	nop
   20184:	90                   	nop
   20185:	90                   	nop
   20186:	90                   	nop
   20187:	90                   	nop
   20188:	90                   	nop
   20189:	90                   	nop
   2018a:	90                   	nop
   2018b:	90                   	nop
   2018c:	90                   	nop
   2018d:	90                   	nop
   2018e:	90                   	nop
   2018f:	90                   	nop
   20190:	90                   	nop
   20191:	90                   	nop
   20192:	90                   	nop
   20193:	90                   	nop
   20194:	90                   	nop
   20195:	90                   	nop
   20196:	90                   	nop
   20197:	90                   	nop
   20198:	90                   	nop
   20199:	90                   	nop
   2019a:	90                   	nop
   2019b:	e8 60 fe fd ff       	call   0 <_impure_ptr>
   201a0:	a1 a0 1b 03 10       	mov    0x10031ba0,%eax
   201a5:	85 c0                	test   %eax,%eax
   201a7:	74 17                	je     201c0 <frame_dummy+0x60>
   201a9:	b8 00 00 00 00       	mov    $0x0,%eax
   201ae:	85 c0                	test   %eax,%eax
   201b0:	74 0e                	je     201c0 <frame_dummy+0x60>
   201b2:	c7 04 24 a0 1b 03 10 	movl   $0x10031ba0,(%esp)
   201b9:	66 90                	xchg   %ax,%ax
   201bb:	83 e0 e0             	and    $0xffffffe0,%eax
   201be:	ff d0                	call   *%eax
   201c0:	89 ec                	mov    %ebp,%esp
   201c2:	5d                   	pop    %ebp
   201c3:	59                   	pop    %ecx
   201c4:	83 e1 e0             	and    $0xffffffe0,%ecx
   201c7:	ff e1                	jmp    *%ecx
   201c9:	90                   	nop
   201ca:	90                   	nop
   201cb:	90                   	nop
   201cc:	90                   	nop
   201cd:	90                   	nop
   201ce:	90                   	nop
   201cf:	90                   	nop
   201d0:	90                   	nop
   201d1:	90                   	nop
   201d2:	90                   	nop
   201d3:	90                   	nop
   201d4:	90                   	nop
   201d5:	90                   	nop
   201d6:	90                   	nop
   201d7:	90                   	nop
   201d8:	90                   	nop
   201d9:	90                   	nop
   201da:	90                   	nop
   201db:	90                   	nop
   201dc:	90                   	nop
   201dd:	90                   	nop
   201de:	90                   	nop
   201df:	90                   	nop

000201e0 <my_strcpy>:
   201e0:	55                   	push   %ebp
   201e1:	89 e5                	mov    %esp,%ebp
   201e3:	83 ec 10             	sub    $0x10,%esp
   201e6:	c7 45 fc 00 00 00 00 	movl   $0x0,-0x4(%ebp)
   201ed:	eb 31                	jmp    20220 <my_strcpy+0x40>
   201ef:	eb 0f                	jmp    20200 <my_strcpy+0x20>
   201f1:	90                   	nop
   201f2:	90                   	nop
   201f3:	90                   	nop
   201f4:	90                   	nop
   201f5:	90                   	nop
   201f6:	90                   	nop
   201f7:	90                   	nop
   201f8:	90                   	nop
   201f9:	90                   	nop
   201fa:	90                   	nop
   201fb:	90                   	nop
   201fc:	90                   	nop
   201fd:	90                   	nop
   201fe:	90                   	nop
   201ff:	90                   	nop
   20200:	8b 45 fc             	mov    -0x4(%ebp),%eax
   20203:	03 45 08             	add    0x8(%ebp),%eax
   20206:	8b 55 fc             	mov    -0x4(%ebp),%edx
   20209:	03 55 10             	add    0x10(%ebp),%edx
   2020c:	0f b6 12             	movzbl (%edx),%edx
   2020f:	88 10                	mov    %dl,(%eax)
   20211:	83 45 fc 01          	addl   $0x1,-0x4(%ebp)
   20215:	8d 74 26 00          	lea    0x0(%esi,%eiz,1),%esi
   20219:	8d bc 27 00 00 00 00 	lea    0x0(%edi,%eiz,1),%edi
   20220:	8b 45 fc             	mov    -0x4(%ebp),%eax
   20223:	3b 45 0c             	cmp    0xc(%ebp),%eax
   20226:	7c d8                	jl     20200 <my_strcpy+0x20>
   20228:	89 ec                	mov    %ebp,%esp
   2022a:	5d                   	pop    %ebp
   2022b:	59                   	pop    %ecx
   2022c:	83 e1 e0             	and    $0xffffffe0,%ecx
   2022f:	ff e1                	jmp    *%ecx
   20231:	eb 0d                	jmp    20240 <my_system>
   20233:	90                   	nop
   20234:	90                   	nop
   20235:	90                   	nop
   20236:	90                   	nop
   20237:	90                   	nop
   20238:	90                   	nop
   20239:	90                   	nop
   2023a:	90                   	nop
   2023b:	90                   	nop
   2023c:	90                   	nop
   2023d:	90                   	nop
   2023e:	90                   	nop
   2023f:	90                   	nop

00020240 <my_system>:
   20240:	55                   	push   %ebp
   20241:	89 e5                	mov    %esp,%ebp
   20243:	83 ec 18             	sub    $0x18,%esp
   20246:	c7 04 24 20 01 02 10 	movl   $0x10020120,(%esp)
   2024d:	8d b4 26 00 00 00 00 	lea    0x0(%esi,%eiz,1),%esi
   20254:	8d bc 27 00 00 00 00 	lea    0x0(%edi,%eiz,1),%edi
   2025b:	e8 80 13 00 00       	call   215e0 <system>
   20260:	89 ec                	mov    %ebp,%esp
   20262:	5d                   	pop    %ebp
   20263:	59                   	pop    %ecx
   20264:	83 e1 e0             	and    $0xffffffe0,%ecx
   20267:	ff e1                	jmp    *%ecx
   20269:	eb 15                	jmp    20280 <my_hack>
   2026b:	90                   	nop
   2026c:	90                   	nop
   2026d:	90                   	nop
   2026e:	90                   	nop
   2026f:	90                   	nop
   20270:	90                   	nop
   20271:	90                   	nop
   20272:	90                   	nop
   20273:	90                   	nop
   20274:	90                   	nop
   20275:	90                   	nop
   20276:	90                   	nop
   20277:	90                   	nop
   20278:	90                   	nop
   20279:	90                   	nop
   2027a:	90                   	nop
   2027b:	90                   	nop
   2027c:	90                   	nop
   2027d:	90                   	nop
   2027e:	90                   	nop
   2027f:	90                   	nop

00020280 <my_hack>:
   20280:	55                   	push   %ebp
   20281:	89 e5                	mov    %esp,%ebp
   20283:	83 ec 18             	sub    $0x18,%esp
   20286:	c7 04 24 28 01 02 10 	movl   $0x10020128,(%esp)
   2028d:	8d b4 26 00 00 00 00 	lea    0x0(%esi,%eiz,1),%esi
   20294:	8d bc 27 00 00 00 00 	lea    0x0(%edi,%eiz,1),%edi
   2029b:	e8 40 11 00 00       	call   213e0 <puts>
   202a0:	89 ec                	mov    %ebp,%esp
   202a2:	5d                   	pop    %ebp
   202a3:	59                   	pop    %ecx
   202a4:	83 e1 e0             	and    $0xffffffe0,%ecx
   202a7:	ff e1                	jmp    *%ecx
   202a9:	eb 15                	jmp    202c0 <main>
   202ab:	90                   	nop
   202ac:	90                   	nop
   202ad:	90                   	nop
   202ae:	90                   	nop
   202af:	90                   	nop
   202b0:	90                   	nop
   202b1:	90                   	nop
   202b2:	90                   	nop
   202b3:	90                   	nop
   202b4:	90                   	nop
   202b5:	90                   	nop
   202b6:	90                   	nop
   202b7:	90                   	nop
   202b8:	90                   	nop
   202b9:	90                   	nop
   202ba:	90                   	nop
   202bb:	90                   	nop
   202bc:	90                   	nop
   202bd:	90                   	nop
   202be:	90                   	nop
   202bf:	90                   	nop

000202c0 <main>:
   202c0:	55                   	push   %ebp
   202c1:	89 e5                	mov    %esp,%ebp
   202c3:	83 ec 1c             	sub    $0x1c,%esp
   202c6:	c7 44 24 08 35 01 02 	movl   $0x10020135,0x8(%esp)
   202cd:	10 
   202ce:	c7 44 24 04 18 00 00 	movl   $0x18,0x4(%esp)
   202d5:	00 
   202d6:	8d 45 fc             	lea    -0x4(%ebp),%eax
   202d9:	89 04 24             	mov    %eax,(%esp)
   202dc:	8d 74 26 00          	lea    0x0(%esi,%eiz,1),%esi
   202e0:	eb 19                	jmp    202fb <main+0x3b>
   202e2:	90                   	nop
   202e3:	90                   	nop
   202e4:	90                   	nop
   202e5:	90                   	nop
   202e6:	90                   	nop
   202e7:	90                   	nop
   202e8:	90                   	nop
   202e9:	90                   	nop
   202ea:	90                   	nop
   202eb:	90                   	nop
   202ec:	90                   	nop
   202ed:	90                   	nop
   202ee:	90                   	nop
   202ef:	90                   	nop
   202f0:	90                   	nop
   202f1:	90                   	nop
   202f2:	90                   	nop
   202f3:	90                   	nop
   202f4:	90                   	nop
   202f5:	90                   	nop
   202f6:	90                   	nop
   202f7:	90                   	nop
   202f8:	90                   	nop
   202f9:	90                   	nop
   202fa:	90                   	nop
   202fb:	e8 e0 fe ff ff       	call   201e0 <my_strcpy>
   20300:	b8 00 00 00 00       	mov    $0x0,%eax
   20305:	89 ec                	mov    %ebp,%esp
   20307:	5d                   	pop    %ebp
   20308:	59                   	pop    %ecx
   20309:	83 e1 e0             	and    $0xffffffe0,%ecx
   2030c:	ff e1                	jmp    *%ecx
   2030e:	90                   	nop
   2030f:	90                   	nop
   20310:	90                   	nop
   20311:	90                   	nop
   20312:	90                   	nop
   20313:	90                   	nop
   20314:	90                   	nop
   20315:	90                   	nop
   20316:	90                   	nop
   20317:	90                   	nop
   20318:	90                   	nop
   20319:	90                   	nop
   2031a:	90                   	nop
   2031b:	90                   	nop
   2031c:	90                   	nop
   2031d:	90                   	nop
   2031e:	90                   	nop
   2031f:	90                   	nop

00020320 <_exit>:
   20320:	83 ec 1c             	sub    $0x1c,%esp
   20323:	8b 44 24 20          	mov    0x20(%esp),%eax
   20327:	89 04 24             	mov    %eax,(%esp)
   2032a:	a1 78 28 03 10       	mov    0x10032878,%eax
   2032f:	8d b6 00 00 00 00    	lea    0x0(%esi),%esi
   20335:	8d bf 00 00 00 00    	lea    0x0(%edi),%edi
   2033b:	83 e0 e0             	and    $0xffffffe0,%eax
   2033e:	ff d0                	call   *%eax
   20340:	0f 0b                	ud2    
   20342:	90                   	nop
   20343:	90                   	nop
   20344:	90                   	nop
   20345:	90                   	nop
   20346:	90                   	nop
   20347:	90                   	nop
   20348:	90                   	nop
   20349:	90                   	nop
   2034a:	90                   	nop
   2034b:	90                   	nop
   2034c:	90                   	nop
   2034d:	90                   	nop
   2034e:	90                   	nop
   2034f:	90                   	nop
   20350:	90                   	nop
   20351:	90                   	nop
   20352:	90                   	nop
   20353:	90                   	nop
   20354:	90                   	nop
   20355:	90                   	nop
   20356:	90                   	nop
   20357:	90                   	nop
   20358:	90                   	nop
   20359:	90                   	nop
   2035a:	90                   	nop
   2035b:	90                   	nop
   2035c:	90                   	nop
   2035d:	90                   	nop
   2035e:	90                   	nop
   2035f:	90                   	nop

00020360 <_start>:
   20360:	83 ec 2c             	sub    $0x2c,%esp
   20363:	8b 44 24 30          	mov    0x30(%esp),%eax
   20367:	8d 54 24 30          	lea    0x30(%esp),%edx
   2036b:	89 5c 24 1c          	mov    %ebx,0x1c(%esp)
   2036f:	89 7c 24 24          	mov    %edi,0x24(%esp)
   20373:	89 74 24 20          	mov    %esi,0x20(%esp)
   20377:	89 6c 24 28          	mov    %ebp,0x28(%esp)
   2037b:	8b 70 08             	mov    0x8(%eax),%esi
   2037e:	66 90                	xchg   %ax,%ax
   20380:	8d 78 0c             	lea    0xc(%eax),%edi
   20383:	8b 28                	mov    (%eax),%ebp
   20385:	8b 40 04             	mov    0x4(%eax),%eax
   20388:	89 15 a8 27 03 10    	mov    %edx,0x100327a8
   2038e:	8d 5c b7 04          	lea    0x4(%edi,%esi,4),%ebx
   20392:	89 1d 00 1c 03 10    	mov    %ebx,0x10031c00
   20398:	8d 44 83 04          	lea    0x4(%ebx,%eax,4),%eax
   2039c:	89 04 24             	mov    %eax,(%esp)
   2039f:	90                   	nop
   203a0:	eb 19                	jmp    203bb <_start+0x5b>
   203a2:	90                   	nop
   203a3:	90                   	nop
   203a4:	90                   	nop
   203a5:	90                   	nop
   203a6:	90                   	nop
   203a7:	90                   	nop
   203a8:	90                   	nop
   203a9:	90                   	nop
   203aa:	90                   	nop
   203ab:	90                   	nop
   203ac:	90                   	nop
   203ad:	90                   	nop
   203ae:	90                   	nop
   203af:	90                   	nop
   203b0:	90                   	nop
   203b1:	90                   	nop
   203b2:	90                   	nop
   203b3:	90                   	nop
   203b4:	90                   	nop
   203b5:	90                   	nop
   203b6:	90                   	nop
   203b7:	90                   	nop
   203b8:	90                   	nop
   203b9:	90                   	nop
   203ba:	90                   	nop
   203bb:	e8 60 04 00 00       	call   20820 <__libnacl_irt_init>
   203c0:	85 ed                	test   %ebp,%ebp
   203c2:	74 1c                	je     203e0 <_start+0x80>
   203c4:	89 2c 24             	mov    %ebp,(%esp)
   203c7:	eb 12                	jmp    203db <_start+0x7b>
   203c9:	90                   	nop
   203ca:	90                   	nop
   203cb:	90                   	nop
   203cc:	90                   	nop
   203cd:	90                   	nop
   203ce:	90                   	nop
   203cf:	90                   	nop
   203d0:	90                   	nop
   203d1:	90                   	nop
   203d2:	90                   	nop
   203d3:	90                   	nop
   203d4:	90                   	nop
   203d5:	90                   	nop
   203d6:	90                   	nop
   203d7:	90                   	nop
   203d8:	90                   	nop
   203d9:	90                   	nop
   203da:	90                   	nop
   203db:	e8 40 0b 00 00       	call   20f20 <atexit>
   203e0:	c7 04 24 00 10 02 00 	movl   $0x21000,(%esp)
   203e7:	eb 12                	jmp    203fb <_start+0x9b>
   203e9:	90                   	nop
   203ea:	90                   	nop
   203eb:	90                   	nop
   203ec:	90                   	nop
   203ed:	90                   	nop
   203ee:	90                   	nop
   203ef:	90                   	nop
   203f0:	90                   	nop
   203f1:	90                   	nop
   203f2:	90                   	nop
   203f3:	90                   	nop
   203f4:	90                   	nop
   203f5:	90                   	nop
   203f6:	90                   	nop
   203f7:	90                   	nop
   203f8:	90                   	nop
   203f9:	90                   	nop
   203fa:	90                   	nop
   203fb:	e8 20 0b 00 00       	call   20f20 <atexit>
   20400:	eb 19                	jmp    2041b <_start+0xbb>
   20402:	90                   	nop
   20403:	90                   	nop
   20404:	90                   	nop
   20405:	90                   	nop
   20406:	90                   	nop
   20407:	90                   	nop
   20408:	90                   	nop
   20409:	90                   	nop
   2040a:	90                   	nop
   2040b:	90                   	nop
   2040c:	90                   	nop
   2040d:	90                   	nop
   2040e:	90                   	nop
   2040f:	90                   	nop
   20410:	90                   	nop
   20411:	90                   	nop
   20412:	90                   	nop
   20413:	90                   	nop
   20414:	90                   	nop
   20415:	90                   	nop
   20416:	90                   	nop
   20417:	90                   	nop
   20418:	90                   	nop
   20419:	90                   	nop
   2041a:	90                   	nop
   2041b:	e8 60 00 00 00       	call   20480 <__pthread_initialize>
   20420:	eb 19                	jmp    2043b <_start+0xdb>
   20422:	90                   	nop
   20423:	90                   	nop
   20424:	90                   	nop
   20425:	90                   	nop
   20426:	90                   	nop
   20427:	90                   	nop
   20428:	90                   	nop
   20429:	90                   	nop
   2042a:	90                   	nop
   2042b:	90                   	nop
   2042c:	90                   	nop
   2042d:	90                   	nop
   2042e:	90                   	nop
   2042f:	90                   	nop
   20430:	90                   	nop
   20431:	90                   	nop
   20432:	90                   	nop
   20433:	90                   	nop
   20434:	90                   	nop
   20435:	90                   	nop
   20436:	90                   	nop
   20437:	90                   	nop
   20438:	90                   	nop
   20439:	90                   	nop
   2043a:	90                   	nop
   2043b:	e8 80 0c 00 00       	call   210c0 <__libc_init_array>
   20440:	ba 00 00 00 00       	mov    $0x0,%edx
   20445:	b8 c0 02 02 00       	mov    $0x202c0,%eax
   2044a:	85 d2                	test   %edx,%edx
   2044c:	0f 45 c2             	cmovne %edx,%eax
   2044f:	89 5c 24 08          	mov    %ebx,0x8(%esp)
   20453:	89 7c 24 04          	mov    %edi,0x4(%esp)
   20457:	89 34 24             	mov    %esi,(%esp)
   2045a:	90                   	nop
   2045b:	83 e0 e0             	and    $0xffffffe0,%eax
   2045e:	ff d0                	call   *%eax
   20460:	89 04 24             	mov    %eax,(%esp)
   20463:	eb 16                	jmp    2047b <_start+0x11b>
   20465:	90                   	nop
   20466:	90                   	nop
   20467:	90                   	nop
   20468:	90                   	nop
   20469:	90                   	nop
   2046a:	90                   	nop
   2046b:	90                   	nop
   2046c:	90                   	nop
   2046d:	90                   	nop
   2046e:	90                   	nop
   2046f:	90                   	nop
   20470:	90                   	nop
   20471:	90                   	nop
   20472:	90                   	nop
   20473:	90                   	nop
   20474:	90                   	nop
   20475:	90                   	nop
   20476:	90                   	nop
   20477:	90                   	nop
   20478:	90                   	nop
   20479:	90                   	nop
   2047a:	90                   	nop
   2047b:	e8 20 0b 00 00       	call   20fa0 <exit>

00020480 <__pthread_initialize>:
   20480:	83 ec 1c             	sub    $0x1c,%esp
   20483:	c7 04 24 04 00 00 00 	movl   $0x4,(%esp)
   2048a:	eb 0f                	jmp    2049b <__pthread_initialize+0x1b>
   2048c:	90                   	nop
   2048d:	90                   	nop
   2048e:	90                   	nop
   2048f:	90                   	nop
   20490:	90                   	nop
   20491:	90                   	nop
   20492:	90                   	nop
   20493:	90                   	nop
   20494:	90                   	nop
   20495:	90                   	nop
   20496:	90                   	nop
   20497:	90                   	nop
   20498:	90                   	nop
   20499:	90                   	nop
   2049a:	90                   	nop
   2049b:	e8 c0 05 00 00       	call   20a60 <__pthread_initialize_minimal>
   204a0:	83 c4 1c             	add    $0x1c,%esp
   204a3:	59                   	pop    %ecx
   204a4:	83 e1 e0             	and    $0xffffffe0,%ecx
   204a7:	ff e1                	jmp    *%ecx
   204a9:	90                   	nop
   204aa:	90                   	nop
   204ab:	90                   	nop
   204ac:	90                   	nop
   204ad:	90                   	nop
   204ae:	90                   	nop
   204af:	90                   	nop
   204b0:	90                   	nop
   204b1:	90                   	nop
   204b2:	90                   	nop
   204b3:	90                   	nop
   204b4:	90                   	nop
   204b5:	90                   	nop
   204b6:	90                   	nop
   204b7:	90                   	nop
   204b8:	90                   	nop
   204b9:	90                   	nop
   204ba:	90                   	nop
   204bb:	90                   	nop
   204bc:	90                   	nop
   204bd:	90                   	nop
   204be:	90                   	nop
   204bf:	90                   	nop

000204c0 <stub_close>:
   204c0:	59                   	pop    %ecx
   204c1:	b8 26 00 00 00       	mov    $0x26,%eax
   204c6:	83 e1 e0             	and    $0xffffffe0,%ecx
   204c9:	ff e1                	jmp    *%ecx
   204cb:	eb 13                	jmp    204e0 <stub_dup>
   204cd:	90                   	nop
   204ce:	90                   	nop
   204cf:	90                   	nop
   204d0:	90                   	nop
   204d1:	90                   	nop
   204d2:	90                   	nop
   204d3:	90                   	nop
   204d4:	90                   	nop
   204d5:	90                   	nop
   204d6:	90                   	nop
   204d7:	90                   	nop
   204d8:	90                   	nop
   204d9:	90                   	nop
   204da:	90                   	nop
   204db:	90                   	nop
   204dc:	90                   	nop
   204dd:	90                   	nop
   204de:	90                   	nop
   204df:	90                   	nop

000204e0 <stub_dup>:
   204e0:	59                   	pop    %ecx
   204e1:	b8 26 00 00 00       	mov    $0x26,%eax
   204e6:	83 e1 e0             	and    $0xffffffe0,%ecx
   204e9:	ff e1                	jmp    *%ecx
   204eb:	eb 13                	jmp    20500 <stub_dup2>
   204ed:	90                   	nop
   204ee:	90                   	nop
   204ef:	90                   	nop
   204f0:	90                   	nop
   204f1:	90                   	nop
   204f2:	90                   	nop
   204f3:	90                   	nop
   204f4:	90                   	nop
   204f5:	90                   	nop
   204f6:	90                   	nop
   204f7:	90                   	nop
   204f8:	90                   	nop
   204f9:	90                   	nop
   204fa:	90                   	nop
   204fb:	90                   	nop
   204fc:	90                   	nop
   204fd:	90                   	nop
   204fe:	90                   	nop
   204ff:	90                   	nop

00020500 <stub_dup2>:
   20500:	59                   	pop    %ecx
   20501:	b8 26 00 00 00       	mov    $0x26,%eax
   20506:	83 e1 e0             	and    $0xffffffe0,%ecx
   20509:	ff e1                	jmp    *%ecx
   2050b:	eb 13                	jmp    20520 <stub_read>
   2050d:	90                   	nop
   2050e:	90                   	nop
   2050f:	90                   	nop
   20510:	90                   	nop
   20511:	90                   	nop
   20512:	90                   	nop
   20513:	90                   	nop
   20514:	90                   	nop
   20515:	90                   	nop
   20516:	90                   	nop
   20517:	90                   	nop
   20518:	90                   	nop
   20519:	90                   	nop
   2051a:	90                   	nop
   2051b:	90                   	nop
   2051c:	90                   	nop
   2051d:	90                   	nop
   2051e:	90                   	nop
   2051f:	90                   	nop

00020520 <stub_read>:
   20520:	59                   	pop    %ecx
   20521:	b8 26 00 00 00       	mov    $0x26,%eax
   20526:	83 e1 e0             	and    $0xffffffe0,%ecx
   20529:	ff e1                	jmp    *%ecx
   2052b:	eb 13                	jmp    20540 <stub_write>
   2052d:	90                   	nop
   2052e:	90                   	nop
   2052f:	90                   	nop
   20530:	90                   	nop
   20531:	90                   	nop
   20532:	90                   	nop
   20533:	90                   	nop
   20534:	90                   	nop
   20535:	90                   	nop
   20536:	90                   	nop
   20537:	90                   	nop
   20538:	90                   	nop
   20539:	90                   	nop
   2053a:	90                   	nop
   2053b:	90                   	nop
   2053c:	90                   	nop
   2053d:	90                   	nop
   2053e:	90                   	nop
   2053f:	90                   	nop

00020540 <stub_write>:
   20540:	59                   	pop    %ecx
   20541:	b8 26 00 00 00       	mov    $0x26,%eax
   20546:	83 e1 e0             	and    $0xffffffe0,%ecx
   20549:	ff e1                	jmp    *%ecx
   2054b:	eb 13                	jmp    20560 <stub_seek>
   2054d:	90                   	nop
   2054e:	90                   	nop
   2054f:	90                   	nop
   20550:	90                   	nop
   20551:	90                   	nop
   20552:	90                   	nop
   20553:	90                   	nop
   20554:	90                   	nop
   20555:	90                   	nop
   20556:	90                   	nop
   20557:	90                   	nop
   20558:	90                   	nop
   20559:	90                   	nop
   2055a:	90                   	nop
   2055b:	90                   	nop
   2055c:	90                   	nop
   2055d:	90                   	nop
   2055e:	90                   	nop
   2055f:	90                   	nop

00020560 <stub_seek>:
   20560:	59                   	pop    %ecx
   20561:	b8 26 00 00 00       	mov    $0x26,%eax
   20566:	83 e1 e0             	and    $0xffffffe0,%ecx
   20569:	ff e1                	jmp    *%ecx
   2056b:	eb 13                	jmp    20580 <stub_fstat>
   2056d:	90                   	nop
   2056e:	90                   	nop
   2056f:	90                   	nop
   20570:	90                   	nop
   20571:	90                   	nop
   20572:	90                   	nop
   20573:	90                   	nop
   20574:	90                   	nop
   20575:	90                   	nop
   20576:	90                   	nop
   20577:	90                   	nop
   20578:	90                   	nop
   20579:	90                   	nop
   2057a:	90                   	nop
   2057b:	90                   	nop
   2057c:	90                   	nop
   2057d:	90                   	nop
   2057e:	90                   	nop
   2057f:	90                   	nop

00020580 <stub_fstat>:
   20580:	59                   	pop    %ecx
   20581:	b8 26 00 00 00       	mov    $0x26,%eax
   20586:	83 e1 e0             	and    $0xffffffe0,%ecx
   20589:	ff e1                	jmp    *%ecx
   2058b:	eb 13                	jmp    205a0 <stub_getdents>
   2058d:	90                   	nop
   2058e:	90                   	nop
   2058f:	90                   	nop
   20590:	90                   	nop
   20591:	90                   	nop
   20592:	90                   	nop
   20593:	90                   	nop
   20594:	90                   	nop
   20595:	90                   	nop
   20596:	90                   	nop
   20597:	90                   	nop
   20598:	90                   	nop
   20599:	90                   	nop
   2059a:	90                   	nop
   2059b:	90                   	nop
   2059c:	90                   	nop
   2059d:	90                   	nop
   2059e:	90                   	nop
   2059f:	90                   	nop

000205a0 <stub_getdents>:
   205a0:	59                   	pop    %ecx
   205a1:	b8 26 00 00 00       	mov    $0x26,%eax
   205a6:	83 e1 e0             	and    $0xffffffe0,%ecx
   205a9:	ff e1                	jmp    *%ecx
   205ab:	eb 13                	jmp    205c0 <__libnacl_irt_init_fn>
   205ad:	90                   	nop
   205ae:	90                   	nop
   205af:	90                   	nop
   205b0:	90                   	nop
   205b1:	90                   	nop
   205b2:	90                   	nop
   205b3:	90                   	nop
   205b4:	90                   	nop
   205b5:	90                   	nop
   205b6:	90                   	nop
   205b7:	90                   	nop
   205b8:	90                   	nop
   205b9:	90                   	nop
   205ba:	90                   	nop
   205bb:	90                   	nop
   205bc:	90                   	nop
   205bd:	90                   	nop
   205be:	90                   	nop
   205bf:	90                   	nop

000205c0 <__libnacl_irt_init_fn>:
   205c0:	53                   	push   %ebx
   205c1:	83 ec 08             	sub    $0x8,%esp
   205c4:	8b 5c 24 10          	mov    0x10(%esp),%ebx
   205c8:	8b 13                	mov    (%ebx),%edx
   205ca:	85 d2                	test   %edx,%edx
   205cc:	74 52                	je     20620 <__libnacl_irt_init_fn+0x60>
   205ce:	eb 10                	jmp    205e0 <__libnacl_irt_init_fn+0x20>
   205d0:	90                   	nop
   205d1:	90                   	nop
   205d2:	90                   	nop
   205d3:	90                   	nop
   205d4:	90                   	nop
   205d5:	90                   	nop
   205d6:	90                   	nop
   205d7:	90                   	nop
   205d8:	90                   	nop
   205d9:	90                   	nop
   205da:	90                   	nop
   205db:	90                   	nop
   205dc:	90                   	nop
   205dd:	90                   	nop
   205de:	90                   	nop
   205df:	90                   	nop
   205e0:	b8 01 00 00 00       	mov    $0x1,%eax
   205e5:	eb 19                	jmp    20600 <__libnacl_irt_init_fn+0x40>
   205e7:	90                   	nop
   205e8:	90                   	nop
   205e9:	90                   	nop
   205ea:	90                   	nop
   205eb:	90                   	nop
   205ec:	90                   	nop
   205ed:	90                   	nop
   205ee:	90                   	nop
   205ef:	90                   	nop
   205f0:	90                   	nop
   205f1:	90                   	nop
   205f2:	90                   	nop
   205f3:	90                   	nop
   205f4:	90                   	nop
   205f5:	90                   	nop
   205f6:	90                   	nop
   205f7:	90                   	nop
   205f8:	90                   	nop
   205f9:	90                   	nop
   205fa:	90                   	nop
   205fb:	90                   	nop
   205fc:	90                   	nop
   205fd:	90                   	nop
   205fe:	90                   	nop
   205ff:	90                   	nop
   20600:	83 c4 08             	add    $0x8,%esp
   20603:	5b                   	pop    %ebx
   20604:	59                   	pop    %ecx
   20605:	83 e1 e0             	and    $0xffffffe0,%ecx
   20608:	ff e1                	jmp    *%ecx
   2060a:	eb 14                	jmp    20620 <__libnacl_irt_init_fn+0x60>
   2060c:	90                   	nop
   2060d:	90                   	nop
   2060e:	90                   	nop
   2060f:	90                   	nop
   20610:	90                   	nop
   20611:	90                   	nop
   20612:	90                   	nop
   20613:	90                   	nop
   20614:	90                   	nop
   20615:	90                   	nop
   20616:	90                   	nop
   20617:	90                   	nop
   20618:	90                   	nop
   20619:	90                   	nop
   2061a:	90                   	nop
   2061b:	90                   	nop
   2061c:	90                   	nop
   2061d:	90                   	nop
   2061e:	90                   	nop
   2061f:	90                   	nop
   20620:	8b 44 24 14          	mov    0x14(%esp),%eax
   20624:	eb 15                	jmp    2063b <__libnacl_irt_init_fn+0x7b>
   20626:	90                   	nop
   20627:	90                   	nop
   20628:	90                   	nop
   20629:	90                   	nop
   2062a:	90                   	nop
   2062b:	90                   	nop
   2062c:	90                   	nop
   2062d:	90                   	nop
   2062e:	90                   	nop
   2062f:	90                   	nop
   20630:	90                   	nop
   20631:	90                   	nop
   20632:	90                   	nop
   20633:	90                   	nop
   20634:	90                   	nop
   20635:	90                   	nop
   20636:	90                   	nop
   20637:	90                   	nop
   20638:	90                   	nop
   20639:	90                   	nop
   2063a:	90                   	nop
   2063b:	83 e0 e0             	and    $0xffffffe0,%eax
   2063e:	ff d0                	call   *%eax
   20640:	8b 03                	mov    (%ebx),%eax
   20642:	85 c0                	test   %eax,%eax
   20644:	75 9a                	jne    205e0 <__libnacl_irt_init_fn+0x20>
   20646:	eb 13                	jmp    2065b <__libnacl_irt_init_fn+0x9b>
   20648:	90                   	nop
   20649:	90                   	nop
   2064a:	90                   	nop
   2064b:	90                   	nop
   2064c:	90                   	nop
   2064d:	90                   	nop
   2064e:	90                   	nop
   2064f:	90                   	nop
   20650:	90                   	nop
   20651:	90                   	nop
   20652:	90                   	nop
   20653:	90                   	nop
   20654:	90                   	nop
   20655:	90                   	nop
   20656:	90                   	nop
   20657:	90                   	nop
   20658:	90                   	nop
   20659:	90                   	nop
   2065a:	90                   	nop
   2065b:	e8 20 09 00 00       	call   20f80 <__errno>
   20660:	c7 00 26 00 00 00    	movl   $0x26,(%eax)
   20666:	31 c0                	xor    %eax,%eax
   20668:	eb 96                	jmp    20600 <__libnacl_irt_init_fn+0x40>
   2066a:	eb 14                	jmp    20680 <__libnacl_fatal>
   2066c:	90                   	nop
   2066d:	90                   	nop
   2066e:	90                   	nop
   2066f:	90                   	nop
   20670:	90                   	nop
   20671:	90                   	nop
   20672:	90                   	nop
   20673:	90                   	nop
   20674:	90                   	nop
   20675:	90                   	nop
   20676:	90                   	nop
   20677:	90                   	nop
   20678:	90                   	nop
   20679:	90                   	nop
   2067a:	90                   	nop
   2067b:	90                   	nop
   2067c:	90                   	nop
   2067d:	90                   	nop
   2067e:	90                   	nop
   2067f:	90                   	nop

00020680 <__libnacl_fatal>:
   20680:	53                   	push   %ebx
   20681:	83 ec 28             	sub    $0x28,%esp
   20684:	8b 0d f0 1b 03 10    	mov    0x10031bf0,%ecx
   2068a:	85 c9                	test   %ecx,%ecx
   2068c:	74 52                	je     206e0 <__libnacl_fatal+0x60>
   2068e:	31 d2                	xor    %edx,%edx
   20690:	80 38 00             	cmpb   $0x0,(%eax)
   20693:	74 2b                	je     206c0 <__libnacl_fatal+0x40>
   20695:	8d 74 26 00          	lea    0x0(%esi,%eiz,1),%esi
   20699:	8d bc 27 00 00 00 00 	lea    0x0(%edi,%eiz,1),%edi
   206a0:	83 c2 01             	add    $0x1,%edx
   206a3:	80 3c 10 00          	cmpb   $0x0,(%eax,%edx,1)
   206a7:	75 f7                	jne    206a0 <__libnacl_fatal+0x20>
   206a9:	eb 15                	jmp    206c0 <__libnacl_fatal+0x40>
   206ab:	90                   	nop
   206ac:	90                   	nop
   206ad:	90                   	nop
   206ae:	90                   	nop
   206af:	90                   	nop
   206b0:	90                   	nop
   206b1:	90                   	nop
   206b2:	90                   	nop
   206b3:	90                   	nop
   206b4:	90                   	nop
   206b5:	90                   	nop
   206b6:	90                   	nop
   206b7:	90                   	nop
   206b8:	90                   	nop
   206b9:	90                   	nop
   206ba:	90                   	nop
   206bb:	90                   	nop
   206bc:	90                   	nop
   206bd:	90                   	nop
   206be:	90                   	nop
   206bf:	90                   	nop
   206c0:	8d 5c 24 1c          	lea    0x1c(%esp),%ebx
   206c4:	89 5c 24 0c          	mov    %ebx,0xc(%esp)
   206c8:	89 54 24 08          	mov    %edx,0x8(%esp)
   206cc:	89 44 24 04          	mov    %eax,0x4(%esp)
   206d0:	c7 04 24 02 00 00 00 	movl   $0x2,(%esp)
   206d7:	8d 74 26 00          	lea    0x0(%esi,%eiz,1),%esi
   206db:	83 e1 e0             	and    $0xffffffe0,%ecx
   206de:	ff d1                	call   *%ecx
   206e0:	0f 0b                	ud2    
   206e2:	eb 1c                	jmp    20700 <__libnacl_irt_query>
   206e4:	90                   	nop
   206e5:	90                   	nop
   206e6:	90                   	nop
   206e7:	90                   	nop
   206e8:	90                   	nop
   206e9:	90                   	nop
   206ea:	90                   	nop
   206eb:	90                   	nop
   206ec:	90                   	nop
   206ed:	90                   	nop
   206ee:	90                   	nop
   206ef:	90                   	nop
   206f0:	90                   	nop
   206f1:	90                   	nop
   206f2:	90                   	nop
   206f3:	90                   	nop
   206f4:	90                   	nop
   206f5:	90                   	nop
   206f6:	90                   	nop
   206f7:	90                   	nop
   206f8:	90                   	nop
   206f9:	90                   	nop
   206fa:	90                   	nop
   206fb:	90                   	nop
   206fc:	90                   	nop
   206fd:	90                   	nop
   206fe:	90                   	nop
   206ff:	90                   	nop

00020700 <__libnacl_irt_query>:
   20700:	53                   	push   %ebx
   20701:	83 ec 18             	sub    $0x18,%esp
   20704:	a1 c0 27 03 10       	mov    0x100327c0,%eax
   20709:	8b 5c 24 28          	mov    0x28(%esp),%ebx
   2070d:	85 c0                	test   %eax,%eax
   2070f:	74 4f                	je     20760 <__libnacl_irt_query+0x60>
   20711:	eb 0d                	jmp    20720 <__libnacl_irt_query+0x20>
   20713:	90                   	nop
   20714:	90                   	nop
   20715:	90                   	nop
   20716:	90                   	nop
   20717:	90                   	nop
   20718:	90                   	nop
   20719:	90                   	nop
   2071a:	90                   	nop
   2071b:	90                   	nop
   2071c:	90                   	nop
   2071d:	90                   	nop
   2071e:	90                   	nop
   2071f:	90                   	nop
   20720:	8b 54 24 24          	mov    0x24(%esp),%edx
   20724:	89 5c 24 08          	mov    %ebx,0x8(%esp)
   20728:	89 54 24 04          	mov    %edx,0x4(%esp)
   2072c:	8b 54 24 20          	mov    0x20(%esp),%edx
   20730:	89 14 24             	mov    %edx,(%esp)
   20733:	90                   	nop
   20734:	8d b4 26 00 00 00 00 	lea    0x0(%esi,%eiz,1),%esi
   2073b:	83 e0 e0             	and    $0xffffffe0,%eax
   2073e:	ff d0                	call   *%eax
   20740:	39 c3                	cmp    %eax,%ebx
   20742:	0f 94 c0             	sete   %al
   20745:	83 c4 18             	add    $0x18,%esp
   20748:	5b                   	pop    %ebx
   20749:	0f b6 c0             	movzbl %al,%eax
   2074c:	59                   	pop    %ecx
   2074d:	83 e1 e0             	and    $0xffffffe0,%ecx
   20750:	ff e1                	jmp    *%ecx
   20752:	8d b4 26 00 00 00 00 	lea    0x0(%esi,%eiz,1),%esi
   20759:	8d bc 27 00 00 00 00 	lea    0x0(%edi,%eiz,1),%edi
   20760:	b8 50 01 02 10       	mov    $0x10020150,%eax
   20765:	eb 14                	jmp    2077b <__libnacl_irt_query+0x7b>
   20767:	90                   	nop
   20768:	90                   	nop
   20769:	90                   	nop
   2076a:	90                   	nop
   2076b:	90                   	nop
   2076c:	90                   	nop
   2076d:	90                   	nop
   2076e:	90                   	nop
   2076f:	90                   	nop
   20770:	90                   	nop
   20771:	90                   	nop
   20772:	90                   	nop
   20773:	90                   	nop
   20774:	90                   	nop
   20775:	90                   	nop
   20776:	90                   	nop
   20777:	90                   	nop
   20778:	90                   	nop
   20779:	90                   	nop
   2077a:	90                   	nop
   2077b:	e8 00 ff ff ff       	call   20680 <__libnacl_fatal>
   20780:	a1 c0 27 03 10       	mov    0x100327c0,%eax
   20785:	eb 99                	jmp    20720 <__libnacl_irt_query+0x20>
   20787:	eb 17                	jmp    207a0 <__libnacl_mandatory_irt_query>
   20789:	90                   	nop
   2078a:	90                   	nop
   2078b:	90                   	nop
   2078c:	90                   	nop
   2078d:	90                   	nop
   2078e:	90                   	nop
   2078f:	90                   	nop
   20790:	90                   	nop
   20791:	90                   	nop
   20792:	90                   	nop
   20793:	90                   	nop
   20794:	90                   	nop
   20795:	90                   	nop
   20796:	90                   	nop
   20797:	90                   	nop
   20798:	90                   	nop
   20799:	90                   	nop
   2079a:	90                   	nop
   2079b:	90                   	nop
   2079c:	90                   	nop
   2079d:	90                   	nop
   2079e:	90                   	nop
   2079f:	90                   	nop

000207a0 <__libnacl_mandatory_irt_query>:
   207a0:	83 ec 1c             	sub    $0x1c,%esp
   207a3:	8b 44 24 28          	mov    0x28(%esp),%eax
   207a7:	89 44 24 08          	mov    %eax,0x8(%esp)
   207ab:	8b 44 24 24          	mov    0x24(%esp),%eax
   207af:	89 44 24 04          	mov    %eax,0x4(%esp)
   207b3:	8b 44 24 20          	mov    0x20(%esp),%eax
   207b7:	89 04 24             	mov    %eax,(%esp)
   207ba:	90                   	nop
   207bb:	e8 40 ff ff ff       	call   20700 <__libnacl_irt_query>
   207c0:	85 c0                	test   %eax,%eax
   207c2:	74 1c                	je     207e0 <__libnacl_mandatory_irt_query+0x40>
   207c4:	83 c4 1c             	add    $0x1c,%esp
   207c7:	59                   	pop    %ecx
   207c8:	83 e1 e0             	and    $0xffffffe0,%ecx
   207cb:	ff e1                	jmp    *%ecx
   207cd:	eb 11                	jmp    207e0 <__libnacl_mandatory_irt_query+0x40>
   207cf:	90                   	nop
   207d0:	90                   	nop
   207d1:	90                   	nop
   207d2:	90                   	nop
   207d3:	90                   	nop
   207d4:	90                   	nop
   207d5:	90                   	nop
   207d6:	90                   	nop
   207d7:	90                   	nop
   207d8:	90                   	nop
   207d9:	90                   	nop
   207da:	90                   	nop
   207db:	90                   	nop
   207dc:	90                   	nop
   207dd:	90                   	nop
   207de:	90                   	nop
   207df:	90                   	nop
   207e0:	b8 74 01 02 10       	mov    $0x10020174,%eax
   207e5:	83 c4 1c             	add    $0x1c,%esp
   207e8:	e9 93 fe ff ff       	jmp    20680 <__libnacl_fatal>
   207ed:	90                   	nop
   207ee:	90                   	nop
   207ef:	90                   	nop
   207f0:	90                   	nop
   207f1:	90                   	nop
   207f2:	90                   	nop
   207f3:	90                   	nop
   207f4:	90                   	nop
   207f5:	90                   	nop
   207f6:	90                   	nop
   207f7:	90                   	nop
   207f8:	90                   	nop
   207f9:	90                   	nop
   207fa:	90                   	nop
   207fb:	90                   	nop
   207fc:	90                   	nop
   207fd:	90                   	nop
   207fe:	90                   	nop
   207ff:	90                   	nop

00020800 <__libnacl_irt_mprotect>:
   20800:	59                   	pop    %ecx
   20801:	b8 26 00 00 00       	mov    $0x26,%eax
   20806:	83 e1 e0             	and    $0xffffffe0,%ecx
   20809:	ff e1                	jmp    *%ecx
   2080b:	eb 13                	jmp    20820 <__libnacl_irt_init>
   2080d:	90                   	nop
   2080e:	90                   	nop
   2080f:	90                   	nop
   20810:	90                   	nop
   20811:	90                   	nop
   20812:	90                   	nop
   20813:	90                   	nop
   20814:	90                   	nop
   20815:	90                   	nop
   20816:	90                   	nop
   20817:	90                   	nop
   20818:	90                   	nop
   20819:	90                   	nop
   2081a:	90                   	nop
   2081b:	90                   	nop
   2081c:	90                   	nop
   2081d:	90                   	nop
   2081e:	90                   	nop
   2081f:	90                   	nop

00020820 <__libnacl_irt_init>:
   20820:	53                   	push   %ebx
   20821:	83 ec 28             	sub    $0x28,%esp
   20824:	8b 44 24 30          	mov    0x30(%esp),%eax
   20828:	8b 10                	mov    (%eax),%edx
   2082a:	85 d2                	test   %edx,%edx
   2082c:	74 72                	je     208a0 <__libnacl_irt_init+0x80>
   2082e:	8b 0d c0 27 03 10    	mov    0x100327c0,%ecx
   20834:	eb 2a                	jmp    20860 <__libnacl_irt_init+0x40>
   20836:	8d 76 00             	lea    0x0(%esi),%esi
   20839:	8d bc 27 00 00 00 00 	lea    0x0(%edi,%eiz,1),%edi
   20840:	83 c0 08             	add    $0x8,%eax
   20843:	8b 10                	mov    (%eax),%edx
   20845:	85 d2                	test   %edx,%edx
   20847:	74 37                	je     20880 <__libnacl_irt_init+0x60>
   20849:	eb 15                	jmp    20860 <__libnacl_irt_init+0x40>
   2084b:	90                   	nop
   2084c:	90                   	nop
   2084d:	90                   	nop
   2084e:	90                   	nop
   2084f:	90                   	nop
   20850:	90                   	nop
   20851:	90                   	nop
   20852:	90                   	nop
   20853:	90                   	nop
   20854:	90                   	nop
   20855:	90                   	nop
   20856:	90                   	nop
   20857:	90                   	nop
   20858:	90                   	nop
   20859:	90                   	nop
   2085a:	90                   	nop
   2085b:	90                   	nop
   2085c:	90                   	nop
   2085d:	90                   	nop
   2085e:	90                   	nop
   2085f:	90                   	nop
   20860:	83 fa 20             	cmp    $0x20,%edx
   20863:	75 db                	jne    20840 <__libnacl_irt_init+0x20>
   20865:	8b 48 04             	mov    0x4(%eax),%ecx
   20868:	83 c0 08             	add    $0x8,%eax
   2086b:	8b 10                	mov    (%eax),%edx
   2086d:	85 d2                	test   %edx,%edx
   2086f:	75 ef                	jne    20860 <__libnacl_irt_init+0x40>
   20871:	eb 0d                	jmp    20880 <__libnacl_irt_init+0x60>
   20873:	90                   	nop
   20874:	90                   	nop
   20875:	90                   	nop
   20876:	90                   	nop
   20877:	90                   	nop
   20878:	90                   	nop
   20879:	90                   	nop
   2087a:	90                   	nop
   2087b:	90                   	nop
   2087c:	90                   	nop
   2087d:	90                   	nop
   2087e:	90                   	nop
   2087f:	90                   	nop
   20880:	89 0d c0 27 03 10    	mov    %ecx,0x100327c0
   20886:	eb 18                	jmp    208a0 <__libnacl_irt_init+0x80>
   20888:	90                   	nop
   20889:	90                   	nop
   2088a:	90                   	nop
   2088b:	90                   	nop
   2088c:	90                   	nop
   2088d:	90                   	nop
   2088e:	90                   	nop
   2088f:	90                   	nop
   20890:	90                   	nop
   20891:	90                   	nop
   20892:	90                   	nop
   20893:	90                   	nop
   20894:	90                   	nop
   20895:	90                   	nop
   20896:	90                   	nop
   20897:	90                   	nop
   20898:	90                   	nop
   20899:	90                   	nop
   2089a:	90                   	nop
   2089b:	90                   	nop
   2089c:	90                   	nop
   2089d:	90                   	nop
   2089e:	90                   	nop
   2089f:	90                   	nop
   208a0:	c7 44 24 08 20 00 00 	movl   $0x20,0x8(%esp)
   208a7:	00 
   208a8:	c7 44 24 04 e0 1b 03 	movl   $0x10031be0,0x4(%esp)
   208af:	10 
   208b0:	c7 04 24 a8 01 02 10 	movl   $0x100201a8,(%esp)
   208b7:	8d 74 26 00          	lea    0x0(%esi,%eiz,1),%esi
   208bb:	e8 40 fe ff ff       	call   20700 <__libnacl_irt_query>
   208c0:	85 c0                	test   %eax,%eax
   208c2:	0f 84 18 01 00 00    	je     209e0 <__libnacl_irt_init+0x1c0>
   208c8:	eb 16                	jmp    208e0 <__libnacl_irt_init+0xc0>
   208ca:	90                   	nop
   208cb:	90                   	nop
   208cc:	90                   	nop
   208cd:	90                   	nop
   208ce:	90                   	nop
   208cf:	90                   	nop
   208d0:	90                   	nop
   208d1:	90                   	nop
   208d2:	90                   	nop
   208d3:	90                   	nop
   208d4:	90                   	nop
   208d5:	90                   	nop
   208d6:	90                   	nop
   208d7:	90                   	nop
   208d8:	90                   	nop
   208d9:	90                   	nop
   208da:	90                   	nop
   208db:	90                   	nop
   208dc:	90                   	nop
   208dd:	90                   	nop
   208de:	90                   	nop
   208df:	90                   	nop
   208e0:	c7 44 24 08 18 00 00 	movl   $0x18,0x8(%esp)
   208e7:	00 
   208e8:	c7 44 24 04 78 28 03 	movl   $0x10032878,0x4(%esp)
   208ef:	10 
   208f0:	c7 04 24 d0 01 02 10 	movl   $0x100201d0,(%esp)
   208f7:	8d 74 26 00          	lea    0x0(%esi,%eiz,1),%esi
   208fb:	e8 a0 fe ff ff       	call   207a0 <__libnacl_mandatory_irt_query>
   20900:	c7 44 24 08 0c 00 00 	movl   $0xc,0x8(%esp)
   20907:	00 
   20908:	c7 44 24 04 28 28 03 	movl   $0x10032828,0x4(%esp)
   2090f:	10 
   20910:	c7 04 24 e3 01 02 10 	movl   $0x100201e3,(%esp)
   20917:	8d 74 26 00          	lea    0x0(%esi,%eiz,1),%esi
   2091b:	e8 e0 fd ff ff       	call   20700 <__libnacl_irt_query>
   20920:	85 c0                	test   %eax,%eax
   20922:	74 5c                	je     20980 <__libnacl_irt_init+0x160>
   20924:	eb 1a                	jmp    20940 <__libnacl_irt_init+0x120>
   20926:	90                   	nop
   20927:	90                   	nop
   20928:	90                   	nop
   20929:	90                   	nop
   2092a:	90                   	nop
   2092b:	90                   	nop
   2092c:	90                   	nop
   2092d:	90                   	nop
   2092e:	90                   	nop
   2092f:	90                   	nop
   20930:	90                   	nop
   20931:	90                   	nop
   20932:	90                   	nop
   20933:	90                   	nop
   20934:	90                   	nop
   20935:	90                   	nop
   20936:	90                   	nop
   20937:	90                   	nop
   20938:	90                   	nop
   20939:	90                   	nop
   2093a:	90                   	nop
   2093b:	90                   	nop
   2093c:	90                   	nop
   2093d:	90                   	nop
   2093e:	90                   	nop
   2093f:	90                   	nop
   20940:	c7 44 24 08 08 00 00 	movl   $0x8,0x8(%esp)
   20947:	00 
   20948:	c7 44 24 04 90 28 03 	movl   $0x10032890,0x4(%esp)
   2094f:	10 
   20950:	c7 04 24 1f 02 02 10 	movl   $0x1002021f,(%esp)
   20957:	8d 74 26 00          	lea    0x0(%esi,%eiz,1),%esi
   2095b:	e8 40 fe ff ff       	call   207a0 <__libnacl_mandatory_irt_query>
   20960:	83 c4 28             	add    $0x28,%esp
   20963:	5b                   	pop    %ebx
   20964:	59                   	pop    %ecx
   20965:	83 e1 e0             	and    $0xffffffe0,%ecx
   20968:	ff e1                	jmp    *%ecx
   2096a:	eb 14                	jmp    20980 <__libnacl_irt_init+0x160>
   2096c:	90                   	nop
   2096d:	90                   	nop
   2096e:	90                   	nop
   2096f:	90                   	nop
   20970:	90                   	nop
   20971:	90                   	nop
   20972:	90                   	nop
   20973:	90                   	nop
   20974:	90                   	nop
   20975:	90                   	nop
   20976:	90                   	nop
   20977:	90                   	nop
   20978:	90                   	nop
   20979:	90                   	nop
   2097a:	90                   	nop
   2097b:	90                   	nop
   2097c:	90                   	nop
   2097d:	90                   	nop
   2097e:	90                   	nop
   2097f:	90                   	nop
   20980:	8d 5c 24 10          	lea    0x10(%esp),%ebx
   20984:	c7 44 24 08 10 00 00 	movl   $0x10,0x8(%esp)
   2098b:	00 
   2098c:	89 5c 24 04          	mov    %ebx,0x4(%esp)
   20990:	c7 04 24 f7 01 02 10 	movl   $0x100201f7,(%esp)
   20997:	8d 74 26 00          	lea    0x0(%esi,%eiz,1),%esi
   2099b:	e8 60 fd ff ff       	call   20700 <__libnacl_irt_query>
   209a0:	85 c0                	test   %eax,%eax
   209a2:	74 7c                	je     20a20 <__libnacl_irt_init+0x200>
   209a4:	eb 1a                	jmp    209c0 <__libnacl_irt_init+0x1a0>
   209a6:	90                   	nop
   209a7:	90                   	nop
   209a8:	90                   	nop
   209a9:	90                   	nop
   209aa:	90                   	nop
   209ab:	90                   	nop
   209ac:	90                   	nop
   209ad:	90                   	nop
   209ae:	90                   	nop
   209af:	90                   	nop
   209b0:	90                   	nop
   209b1:	90                   	nop
   209b2:	90                   	nop
   209b3:	90                   	nop
   209b4:	90                   	nop
   209b5:	90                   	nop
   209b6:	90                   	nop
   209b7:	90                   	nop
   209b8:	90                   	nop
   209b9:	90                   	nop
   209ba:	90                   	nop
   209bb:	90                   	nop
   209bc:	90                   	nop
   209bd:	90                   	nop
   209be:	90                   	nop
   209bf:	90                   	nop
   209c0:	8b 44 24 14          	mov    0x14(%esp),%eax
   209c4:	a3 28 28 03 10       	mov    %eax,0x10032828
   209c9:	8b 44 24 18          	mov    0x18(%esp),%eax
   209cd:	a3 2c 28 03 10       	mov    %eax,0x1003282c
   209d2:	e9 69 ff ff ff       	jmp    20940 <__libnacl_irt_init+0x120>
   209d7:	89 f6                	mov    %esi,%esi
   209d9:	8d bc 27 00 00 00 00 	lea    0x0(%edi,%eiz,1),%edi
   209e0:	c7 44 24 08 20 00 00 	movl   $0x20,0x8(%esp)
   209e7:	00 
   209e8:	c7 44 24 04 e0 1b 03 	movl   $0x10031be0,0x4(%esp)
   209ef:	10 
   209f0:	c7 04 24 ba 01 02 10 	movl   $0x100201ba,(%esp)
   209f7:	8d 74 26 00          	lea    0x0(%esi,%eiz,1),%esi
   209fb:	e8 00 fd ff ff       	call   20700 <__libnacl_irt_query>
   20a00:	e9 db fe ff ff       	jmp    208e0 <__libnacl_irt_init+0xc0>
   20a05:	eb 19                	jmp    20a20 <__libnacl_irt_init+0x200>
   20a07:	90                   	nop
   20a08:	90                   	nop
   20a09:	90                   	nop
   20a0a:	90                   	nop
   20a0b:	90                   	nop
   20a0c:	90                   	nop
   20a0d:	90                   	nop
   20a0e:	90                   	nop
   20a0f:	90                   	nop
   20a10:	90                   	nop
   20a11:	90                   	nop
   20a12:	90                   	nop
   20a13:	90                   	nop
   20a14:	90                   	nop
   20a15:	90                   	nop
   20a16:	90                   	nop
   20a17:	90                   	nop
   20a18:	90                   	nop
   20a19:	90                   	nop
   20a1a:	90                   	nop
   20a1b:	90                   	nop
   20a1c:	90                   	nop
   20a1d:	90                   	nop
   20a1e:	90                   	nop
   20a1f:	90                   	nop
   20a20:	c7 44 24 08 0c 00 00 	movl   $0xc,0x8(%esp)
   20a27:	00 
   20a28:	89 5c 24 04          	mov    %ebx,0x4(%esp)
   20a2c:	c7 04 24 0b 02 02 10 	movl   $0x1002020b,(%esp)
   20a33:	90                   	nop
   20a34:	8d b4 26 00 00 00 00 	lea    0x0(%esi,%eiz,1),%esi
   20a3b:	e8 60 fd ff ff       	call   207a0 <__libnacl_mandatory_irt_query>
   20a40:	c7 05 30 28 03 10 00 	movl   $0x20800,0x10032830
   20a47:	08 02 00 
   20a4a:	e9 71 ff ff ff       	jmp    209c0 <__libnacl_irt_init+0x1a0>
   20a4f:	90                   	nop
   20a50:	90                   	nop
   20a51:	90                   	nop
   20a52:	90                   	nop
   20a53:	90                   	nop
   20a54:	90                   	nop
   20a55:	90                   	nop
   20a56:	90                   	nop
   20a57:	90                   	nop
   20a58:	90                   	nop
   20a59:	90                   	nop
   20a5a:	90                   	nop
   20a5b:	90                   	nop
   20a5c:	90                   	nop
   20a5d:	90                   	nop
   20a5e:	90                   	nop
   20a5f:	90                   	nop

00020a60 <__pthread_initialize_minimal>:
   20a60:	53                   	push   %ebx
   20a61:	83 ec 28             	sub    $0x28,%esp
   20a64:	8b 5c 24 30          	mov    0x30(%esp),%ebx
   20a68:	89 1c 24             	mov    %ebx,(%esp)
   20a6b:	eb 0e                	jmp    20a7b <__pthread_initialize_minimal+0x1b>
   20a6d:	90                   	nop
   20a6e:	90                   	nop
   20a6f:	90                   	nop
   20a70:	90                   	nop
   20a71:	90                   	nop
   20a72:	90                   	nop
   20a73:	90                   	nop
   20a74:	90                   	nop
   20a75:	90                   	nop
   20a76:	90                   	nop
   20a77:	90                   	nop
   20a78:	90                   	nop
   20a79:	90                   	nop
   20a7a:	90                   	nop
   20a7b:	e8 20 02 00 00       	call   20ca0 <__nacl_tls_combined_size>
   20a80:	ba e0 76 02 00       	mov    $0x276e0,%edx
   20a85:	85 d2                	test   %edx,%edx
   20a87:	74 77                	je     20b00 <__pthread_initialize_minimal+0xa0>
   20a89:	89 04 24             	mov    %eax,(%esp)
   20a8c:	eb 0d                	jmp    20a9b <__pthread_initialize_minimal+0x3b>
   20a8e:	90                   	nop
   20a8f:	90                   	nop
   20a90:	90                   	nop
   20a91:	90                   	nop
   20a92:	90                   	nop
   20a93:	90                   	nop
   20a94:	90                   	nop
   20a95:	90                   	nop
   20a96:	90                   	nop
   20a97:	90                   	nop
   20a98:	90                   	nop
   20a99:	90                   	nop
   20a9a:	90                   	nop
   20a9b:	e8 40 6c 00 00       	call   276e0 <malloc>
   20aa0:	89 5c 24 04          	mov    %ebx,0x4(%esp)
   20aa4:	89 04 24             	mov    %eax,(%esp)
   20aa7:	eb 12                	jmp    20abb <__pthread_initialize_minimal+0x5b>
   20aa9:	90                   	nop
   20aaa:	90                   	nop
   20aab:	90                   	nop
   20aac:	90                   	nop
   20aad:	90                   	nop
   20aae:	90                   	nop
   20aaf:	90                   	nop
   20ab0:	90                   	nop
   20ab1:	90                   	nop
   20ab2:	90                   	nop
   20ab3:	90                   	nop
   20ab4:	90                   	nop
   20ab5:	90                   	nop
   20ab6:	90                   	nop
   20ab7:	90                   	nop
   20ab8:	90                   	nop
   20ab9:	90                   	nop
   20aba:	90                   	nop
   20abb:	e8 60 02 00 00       	call   20d20 <__nacl_tls_initialize_memory>
   20ac0:	89 04 24             	mov    %eax,(%esp)
   20ac3:	eb 16                	jmp    20adb <__pthread_initialize_minimal+0x7b>
   20ac5:	90                   	nop
   20ac6:	90                   	nop
   20ac7:	90                   	nop
   20ac8:	90                   	nop
   20ac9:	90                   	nop
   20aca:	90                   	nop
   20acb:	90                   	nop
   20acc:	90                   	nop
   20acd:	90                   	nop
   20ace:	90                   	nop
   20acf:	90                   	nop
   20ad0:	90                   	nop
   20ad1:	90                   	nop
   20ad2:	90                   	nop
   20ad3:	90                   	nop
   20ad4:	90                   	nop
   20ad5:	90                   	nop
   20ad6:	90                   	nop
   20ad7:	90                   	nop
   20ad8:	90                   	nop
   20ad9:	90                   	nop
   20ada:	90                   	nop
   20adb:	e8 60 03 00 00       	call   20e40 <nacl_tls_init>
   20ae0:	83 c4 28             	add    $0x28,%esp
   20ae3:	5b                   	pop    %ebx
   20ae4:	e9 97 05 00 00       	jmp    21080 <__newlib_thread_init>
   20ae9:	eb 15                	jmp    20b00 <__pthread_initialize_minimal+0xa0>
   20aeb:	90                   	nop
   20aec:	90                   	nop
   20aed:	90                   	nop
   20aee:	90                   	nop
   20aef:	90                   	nop
   20af0:	90                   	nop
   20af1:	90                   	nop
   20af2:	90                   	nop
   20af3:	90                   	nop
   20af4:	90                   	nop
   20af5:	90                   	nop
   20af6:	90                   	nop
   20af7:	90                   	nop
   20af8:	90                   	nop
   20af9:	90                   	nop
   20afa:	90                   	nop
   20afb:	90                   	nop
   20afc:	90                   	nop
   20afd:	90                   	nop
   20afe:	90                   	nop
   20aff:	90                   	nop
   20b00:	c7 44 24 14 00 00 00 	movl   $0x0,0x14(%esp)
   20b07:	00 
   20b08:	c7 44 24 18 00 00 00 	movl   $0x0,0x18(%esp)
   20b0f:	00 
   20b10:	c7 44 24 10 ff ff ff 	movl   $0xffffffff,0x10(%esp)
   20b17:	ff 
   20b18:	c7 44 24 0c 22 00 00 	movl   $0x22,0xc(%esp)
   20b1f:	00 
   20b20:	c7 44 24 08 03 00 00 	movl   $0x3,0x8(%esp)
   20b27:	00 
   20b28:	89 44 24 04          	mov    %eax,0x4(%esp)
   20b2c:	c7 04 24 e0 76 02 00 	movl   $0x276e0,(%esp)
   20b33:	90                   	nop
   20b34:	8d b4 26 00 00 00 00 	lea    0x0(%esi,%eiz,1),%esi
   20b3b:	e8 20 03 00 00       	call   20e60 <mmap>
   20b40:	e9 5b ff ff ff       	jmp    20aa0 <__pthread_initialize_minimal+0x40>
   20b45:	90                   	nop
   20b46:	90                   	nop
   20b47:	90                   	nop
   20b48:	90                   	nop
   20b49:	90                   	nop
   20b4a:	90                   	nop
   20b4b:	90                   	nop
   20b4c:	90                   	nop
   20b4d:	90                   	nop
   20b4e:	90                   	nop
   20b4f:	90                   	nop
   20b50:	90                   	nop
   20b51:	90                   	nop
   20b52:	90                   	nop
   20b53:	90                   	nop
   20b54:	90                   	nop
   20b55:	90                   	nop
   20b56:	90                   	nop
   20b57:	90                   	nop
   20b58:	90                   	nop
   20b59:	90                   	nop
   20b5a:	90                   	nop
   20b5b:	90                   	nop
   20b5c:	90                   	nop
   20b5d:	90                   	nop
   20b5e:	90                   	nop
   20b5f:	90                   	nop

00020b60 <get_tls_info>:
   20b60:	a1 d0 22 03 10       	mov    0x100322d0,%eax
   20b65:	53                   	push   %ebx
   20b66:	85 c0                	test   %eax,%eax
   20b68:	75 56                	jne    20bc0 <get_tls_info+0x60>
   20b6a:	b8 00 00 02 10       	mov    $0x10020000,%eax
   20b6f:	85 c0                	test   %eax,%eax
   20b71:	75 6d                	jne    20be0 <get_tls_info+0x80>
   20b73:	8d b6 00 00 00 00    	lea    0x0(%esi),%esi
   20b79:	8d bc 27 00 00 00 00 	lea    0x0(%edi,%eiz,1),%edi
   20b80:	a1 00 00 00 00       	mov    0x0,%eax
   20b85:	c7 05 c4 22 03 10 00 	movl   $0x0,0x100322c4
   20b8c:	00 00 00 
   20b8f:	a3 d0 22 03 10       	mov    %eax,0x100322d0
   20b94:	b8 00 00 00 00       	mov    $0x0,%eax
   20b99:	2d 00 00 00 00       	sub    $0x0,%eax
   20b9e:	66 90                	xchg   %ax,%ax
   20ba0:	a3 c8 22 03 10       	mov    %eax,0x100322c8
   20ba5:	b8 00 00 00 00       	mov    $0x0,%eax
   20baa:	2d 00 00 00 00       	sub    $0x0,%eax
   20baf:	a3 cc 22 03 10       	mov    %eax,0x100322cc
   20bb4:	8d b6 00 00 00 00    	lea    0x0(%esi),%esi
   20bba:	8d bf 00 00 00 00    	lea    0x0(%edi),%edi
   20bc0:	5b                   	pop    %ebx
   20bc1:	b8 c4 22 03 10       	mov    $0x100322c4,%eax
   20bc6:	59                   	pop    %ecx
   20bc7:	83 e1 e0             	and    $0xffffffe0,%ecx
   20bca:	ff e1                	jmp    *%ecx
   20bcc:	eb 12                	jmp    20be0 <get_tls_info+0x80>
   20bce:	90                   	nop
   20bcf:	90                   	nop
   20bd0:	90                   	nop
   20bd1:	90                   	nop
   20bd2:	90                   	nop
   20bd3:	90                   	nop
   20bd4:	90                   	nop
   20bd5:	90                   	nop
   20bd6:	90                   	nop
   20bd7:	90                   	nop
   20bd8:	90                   	nop
   20bd9:	90                   	nop
   20bda:	90                   	nop
   20bdb:	90                   	nop
   20bdc:	90                   	nop
   20bdd:	90                   	nop
   20bde:	90                   	nop
   20bdf:	90                   	nop
   20be0:	80 3d 04 00 02 10 01 	cmpb   $0x1,0x10020004
   20be7:	75 97                	jne    20b80 <get_tls_info+0x20>
   20be9:	66 83 3d 2a 00 02 10 	cmpw   $0x20,0x1002002a
   20bf0:	20 
   20bf1:	75 8d                	jne    20b80 <get_tls_info+0x20>
   20bf3:	8b 0d 1c 00 02 10    	mov    0x1002001c,%ecx
   20bf9:	31 d2                	xor    %edx,%edx
   20bfb:	90                   	nop
   20bfc:	8d 74 26 00          	lea    0x0(%esi,%eiz,1),%esi
   20c00:	0f b7 1d 2c 00 02 10 	movzwl 0x1002002c,%ebx
   20c07:	01 c1                	add    %eax,%ecx
   20c09:	eb 35                	jmp    20c40 <get_tls_info+0xe0>
   20c0b:	eb 13                	jmp    20c20 <get_tls_info+0xc0>
   20c0d:	90                   	nop
   20c0e:	90                   	nop
   20c0f:	90                   	nop
   20c10:	90                   	nop
   20c11:	90                   	nop
   20c12:	90                   	nop
   20c13:	90                   	nop
   20c14:	90                   	nop
   20c15:	90                   	nop
   20c16:	90                   	nop
   20c17:	90                   	nop
   20c18:	90                   	nop
   20c19:	90                   	nop
   20c1a:	90                   	nop
   20c1b:	90                   	nop
   20c1c:	90                   	nop
   20c1d:	90                   	nop
   20c1e:	90                   	nop
   20c1f:	90                   	nop
   20c20:	83 c2 01             	add    $0x1,%edx
   20c23:	eb 1b                	jmp    20c40 <get_tls_info+0xe0>
   20c25:	90                   	nop
   20c26:	90                   	nop
   20c27:	90                   	nop
   20c28:	90                   	nop
   20c29:	90                   	nop
   20c2a:	90                   	nop
   20c2b:	90                   	nop
   20c2c:	90                   	nop
   20c2d:	90                   	nop
   20c2e:	90                   	nop
   20c2f:	90                   	nop
   20c30:	90                   	nop
   20c31:	90                   	nop
   20c32:	90                   	nop
   20c33:	90                   	nop
   20c34:	90                   	nop
   20c35:	90                   	nop
   20c36:	90                   	nop
   20c37:	90                   	nop
   20c38:	90                   	nop
   20c39:	90                   	nop
   20c3a:	90                   	nop
   20c3b:	90                   	nop
   20c3c:	90                   	nop
   20c3d:	90                   	nop
   20c3e:	90                   	nop
   20c3f:	90                   	nop
   20c40:	39 da                	cmp    %ebx,%edx
   20c42:	0f 8d 38 ff ff ff    	jge    20b80 <get_tls_info+0x20>
   20c48:	89 c8                	mov    %ecx,%eax
   20c4a:	83 38 07             	cmpl   $0x7,(%eax)
   20c4d:	8d 49 20             	lea    0x20(%ecx),%ecx
   20c50:	75 ce                	jne    20c20 <get_tls_info+0xc0>
   20c52:	8b 50 1c             	mov    0x1c(%eax),%edx
   20c55:	66 83 3d 10 00 02 10 	cmpw   $0x3,0x10020010
   20c5c:	03 
   20c5d:	8d 76 00             	lea    0x0(%esi),%esi
   20c60:	89 15 d0 22 03 10    	mov    %edx,0x100322d0
   20c66:	8b 50 08             	mov    0x8(%eax),%edx
   20c69:	89 15 c4 22 03 10    	mov    %edx,0x100322c4
   20c6f:	75 0f                	jne    20c80 <get_tls_info+0x120>
   20c71:	81 c2 00 00 02 10    	add    $0x10020000,%edx
   20c77:	89 15 c4 22 03 10    	mov    %edx,0x100322c4
   20c7d:	8d 76 00             	lea    0x0(%esi),%esi
   20c80:	8b 50 10             	mov    0x10(%eax),%edx
   20c83:	89 15 c8 22 03 10    	mov    %edx,0x100322c8
   20c89:	8b 40 14             	mov    0x14(%eax),%eax
   20c8c:	29 d0                	sub    %edx,%eax
   20c8e:	a3 cc 22 03 10       	mov    %eax,0x100322cc
   20c93:	e9 28 ff ff ff       	jmp    20bc0 <get_tls_info+0x60>
   20c98:	90                   	nop
   20c99:	8d b4 26 00 00 00 00 	lea    0x0(%esi,%eiz,1),%esi

00020ca0 <__nacl_tls_combined_size>:
   20ca0:	83 ec 08             	sub    $0x8,%esp
   20ca3:	89 1c 24             	mov    %ebx,(%esp)
   20ca6:	89 74 24 04          	mov    %esi,0x4(%esp)
   20caa:	eb 0f                	jmp    20cbb <__nacl_tls_combined_size+0x1b>
   20cac:	90                   	nop
   20cad:	90                   	nop
   20cae:	90                   	nop
   20caf:	90                   	nop
   20cb0:	90                   	nop
   20cb1:	90                   	nop
   20cb2:	90                   	nop
   20cb3:	90                   	nop
   20cb4:	90                   	nop
   20cb5:	90                   	nop
   20cb6:	90                   	nop
   20cb7:	90                   	nop
   20cb8:	90                   	nop
   20cb9:	90                   	nop
   20cba:	90                   	nop
   20cbb:	e8 a0 fe ff ff       	call   20b60 <get_tls_info>
   20cc0:	8b 50 08             	mov    0x8(%eax),%edx
   20cc3:	8b 48 0c             	mov    0xc(%eax),%ecx
   20cc6:	03 50 04             	add    0x4(%eax),%edx
   20cc9:	8b 44 24 0c          	mov    0xc(%esp),%eax
   20ccd:	89 d6                	mov    %edx,%esi
   20ccf:	8d 59 ff             	lea    -0x1(%ecx),%ebx
   20cd2:	f7 de                	neg    %esi
   20cd4:	8d 14 13             	lea    (%ebx,%edx,1),%edx
   20cd7:	01 d0                	add    %edx,%eax
   20cd9:	85 f6                	test   %esi,%esi
   20cdb:	90                   	nop
   20cdc:	8d 74 26 00          	lea    0x0(%esi,%eiz,1),%esi
   20ce0:	7e 1e                	jle    20d00 <__nacl_tls_combined_size+0x60>
   20ce2:	8d 14 1e             	lea    (%esi,%ebx,1),%edx
   20ce5:	f7 d9                	neg    %ecx
   20ce7:	21 ca                	and    %ecx,%edx
   20ce9:	01 d0                	add    %edx,%eax
   20ceb:	eb 13                	jmp    20d00 <__nacl_tls_combined_size+0x60>
   20ced:	90                   	nop
   20cee:	90                   	nop
   20cef:	90                   	nop
   20cf0:	90                   	nop
   20cf1:	90                   	nop
   20cf2:	90                   	nop
   20cf3:	90                   	nop
   20cf4:	90                   	nop
   20cf5:	90                   	nop
   20cf6:	90                   	nop
   20cf7:	90                   	nop
   20cf8:	90                   	nop
   20cf9:	90                   	nop
   20cfa:	90                   	nop
   20cfb:	90                   	nop
   20cfc:	90                   	nop
   20cfd:	90                   	nop
   20cfe:	90                   	nop
   20cff:	90                   	nop
   20d00:	8b 1c 24             	mov    (%esp),%ebx
   20d03:	8b 74 24 04          	mov    0x4(%esp),%esi
   20d07:	83 c4 08             	add    $0x8,%esp
   20d0a:	59                   	pop    %ecx
   20d0b:	83 e1 e0             	and    $0xffffffe0,%ecx
   20d0e:	ff e1                	jmp    *%ecx
   20d10:	eb 0e                	jmp    20d20 <__nacl_tls_initialize_memory>
   20d12:	90                   	nop
   20d13:	90                   	nop
   20d14:	90                   	nop
   20d15:	90                   	nop
   20d16:	90                   	nop
   20d17:	90                   	nop
   20d18:	90                   	nop
   20d19:	90                   	nop
   20d1a:	90                   	nop
   20d1b:	90                   	nop
   20d1c:	90                   	nop
   20d1d:	90                   	nop
   20d1e:	90                   	nop
   20d1f:	90                   	nop

00020d20 <__nacl_tls_initialize_memory>:
   20d20:	83 ec 3c             	sub    $0x3c,%esp
   20d23:	89 5c 24 2c          	mov    %ebx,0x2c(%esp)
   20d27:	89 74 24 30          	mov    %esi,0x30(%esp)
   20d2b:	89 7c 24 34          	mov    %edi,0x34(%esp)
   20d2f:	89 6c 24 38          	mov    %ebp,0x38(%esp)
   20d33:	90                   	nop
   20d34:	8d b4 26 00 00 00 00 	lea    0x0(%esi,%eiz,1),%esi
   20d3b:	e8 20 fe ff ff       	call   20b60 <get_tls_info>
   20d40:	89 c3                	mov    %eax,%ebx
   20d42:	8b 40 04             	mov    0x4(%eax),%eax
   20d45:	8b 53 08             	mov    0x8(%ebx),%edx
   20d48:	89 44 24 1c          	mov    %eax,0x1c(%esp)
   20d4c:	8b 44 24 44          	mov    0x44(%esp),%eax
   20d50:	89 54 24 18          	mov    %edx,0x18(%esp)
   20d54:	89 04 24             	mov    %eax,(%esp)
   20d57:	8d 74 26 00          	lea    0x0(%esi,%eiz,1),%esi
   20d5b:	e8 40 ff ff ff       	call   20ca0 <__nacl_tls_combined_size>
   20d60:	8b 6b 04             	mov    0x4(%ebx),%ebp
   20d63:	8b 4b 08             	mov    0x8(%ebx),%ecx
   20d66:	8b 73 0c             	mov    0xc(%ebx),%esi
   20d69:	8b 54 24 18          	mov    0x18(%esp),%edx
   20d6d:	01 e9                	add    %ebp,%ecx
   20d6f:	89 44 24 14          	mov    %eax,0x14(%esp)
   20d73:	8b 43 0c             	mov    0xc(%ebx),%eax
   20d76:	83 ee 01             	sub    $0x1,%esi
   20d79:	8d 3c 0e             	lea    (%esi,%ecx,1),%edi
   20d7c:	03 74 24 40          	add    0x40(%esp),%esi
   20d80:	f7 d8                	neg    %eax
   20d82:	21 c7                	and    %eax,%edi
   20d84:	21 c6                	and    %eax,%esi
   20d86:	01 fe                	add    %edi,%esi
   20d88:	8b 7c 24 1c          	mov    0x1c(%esp),%edi
   20d8c:	8d 7c 3a ff          	lea    -0x1(%edx,%edi,1),%edi
   20d90:	89 7c 24 18          	mov    %edi,0x18(%esp)
   20d94:	03 7b 0c             	add    0xc(%ebx),%edi
   20d97:	21 c7                	and    %eax,%edi
   20d99:	89 f0                	mov    %esi,%eax
   20d9b:	29 f8                	sub    %edi,%eax
   20d9d:	89 c7                	mov    %eax,%edi
   20d9f:	90                   	nop
   20da0:	8b 44 24 40          	mov    0x40(%esp),%eax
   20da4:	03 44 24 14          	add    0x14(%esp),%eax
   20da8:	8d 0c 0f             	lea    (%edi,%ecx,1),%ecx
   20dab:	39 c8                	cmp    %ecx,%eax
   20dad:	72 71                	jb     20e20 <__nacl_tls_initialize_memory+0x100>
   20daf:	8b 03                	mov    (%ebx),%eax
   20db1:	89 6c 24 08          	mov    %ebp,0x8(%esp)
   20db5:	89 3c 24             	mov    %edi,(%esp)
   20db8:	89 44 24 04          	mov    %eax,0x4(%esp)
   20dbc:	8d 74 26 00          	lea    0x0(%esi,%eiz,1),%esi
   20dc0:	eb 19                	jmp    20ddb <__nacl_tls_initialize_memory+0xbb>
   20dc2:	90                   	nop
   20dc3:	90                   	nop
   20dc4:	90                   	nop
   20dc5:	90                   	nop
   20dc6:	90                   	nop
   20dc7:	90                   	nop
   20dc8:	90                   	nop
   20dc9:	90                   	nop
   20dca:	90                   	nop
   20dcb:	90                   	nop
   20dcc:	90                   	nop
   20dcd:	90                   	nop
   20dce:	90                   	nop
   20dcf:	90                   	nop
   20dd0:	90                   	nop
   20dd1:	90                   	nop
   20dd2:	90                   	nop
   20dd3:	90                   	nop
   20dd4:	90                   	nop
   20dd5:	90                   	nop
   20dd6:	90                   	nop
   20dd7:	90                   	nop
   20dd8:	90                   	nop
   20dd9:	90                   	nop
   20dda:	90                   	nop
   20ddb:	e8 e0 03 00 00       	call   211c0 <memcpy>
   20de0:	8b 43 08             	mov    0x8(%ebx),%eax
   20de3:	03 7b 04             	add    0x4(%ebx),%edi
   20de6:	c7 44 24 04 00 00 00 	movl   $0x0,0x4(%esp)
   20ded:	00 
   20dee:	89 3c 24             	mov    %edi,(%esp)
   20df1:	89 44 24 08          	mov    %eax,0x8(%esp)
   20df5:	8d b6 00 00 00 00    	lea    0x0(%esi),%esi
   20dfb:	e8 20 04 00 00       	call   21220 <memset>
   20e00:	89 f0                	mov    %esi,%eax
   20e02:	89 36                	mov    %esi,(%esi)
   20e04:	8b 5c 24 2c          	mov    0x2c(%esp),%ebx
   20e08:	8b 74 24 30          	mov    0x30(%esp),%esi
   20e0c:	8b 7c 24 34          	mov    0x34(%esp),%edi
   20e10:	8b 6c 24 38          	mov    0x38(%esp),%ebp
   20e14:	83 c4 3c             	add    $0x3c,%esp
   20e17:	59                   	pop    %ecx
   20e18:	83 e1 e0             	and    $0xffffffe0,%ecx
   20e1b:	ff e1                	jmp    *%ecx
   20e1d:	8d 76 00             	lea    0x0(%esi),%esi
   20e20:	0f 0b                	ud2    
   20e22:	90                   	nop
   20e23:	90                   	nop
   20e24:	90                   	nop
   20e25:	90                   	nop
   20e26:	90                   	nop
   20e27:	90                   	nop
   20e28:	90                   	nop
   20e29:	90                   	nop
   20e2a:	90                   	nop
   20e2b:	90                   	nop
   20e2c:	90                   	nop
   20e2d:	90                   	nop
   20e2e:	90                   	nop
   20e2f:	90                   	nop
   20e30:	90                   	nop
   20e31:	90                   	nop
   20e32:	90                   	nop
   20e33:	90                   	nop
   20e34:	90                   	nop
   20e35:	90                   	nop
   20e36:	90                   	nop
   20e37:	90                   	nop
   20e38:	90                   	nop
   20e39:	90                   	nop
   20e3a:	90                   	nop
   20e3b:	90                   	nop
   20e3c:	90                   	nop
   20e3d:	90                   	nop
   20e3e:	90                   	nop
   20e3f:	90                   	nop

00020e40 <nacl_tls_init>:
   20e40:	83 ec 0c             	sub    $0xc,%esp
   20e43:	a1 90 28 03 10       	mov    0x10032890,%eax
   20e48:	83 c4 0c             	add    $0xc,%esp
   20e4b:	83 e0 e0             	and    $0xffffffe0,%eax
   20e4e:	ff e0                	jmp    *%eax
   20e50:	90                   	nop
   20e51:	90                   	nop
   20e52:	90                   	nop
   20e53:	90                   	nop
   20e54:	90                   	nop
   20e55:	90                   	nop
   20e56:	90                   	nop
   20e57:	90                   	nop
   20e58:	90                   	nop
   20e59:	90                   	nop
   20e5a:	90                   	nop
   20e5b:	90                   	nop
   20e5c:	90                   	nop
   20e5d:	90                   	nop
   20e5e:	90                   	nop
   20e5f:	90                   	nop

00020e60 <mmap>:
   20e60:	53                   	push   %ebx
   20e61:	83 ec 28             	sub    $0x28,%esp
   20e64:	8b 44 24 44          	mov    0x44(%esp),%eax
   20e68:	8b 54 24 48          	mov    0x48(%esp),%edx
   20e6c:	89 44 24 14          	mov    %eax,0x14(%esp)
   20e70:	8b 44 24 40          	mov    0x40(%esp),%eax
   20e74:	89 54 24 18          	mov    %edx,0x18(%esp)
   20e78:	89 44 24 10          	mov    %eax,0x10(%esp)
   20e7c:	8b 44 24 3c          	mov    0x3c(%esp),%eax
   20e80:	89 44 24 0c          	mov    %eax,0xc(%esp)
   20e84:	8b 44 24 38          	mov    0x38(%esp),%eax
   20e88:	89 44 24 08          	mov    %eax,0x8(%esp)
   20e8c:	8b 44 24 34          	mov    0x34(%esp),%eax
   20e90:	89 44 24 04          	mov    %eax,0x4(%esp)
   20e94:	8d 44 24 30          	lea    0x30(%esp),%eax
   20e98:	89 04 24             	mov    %eax,(%esp)
   20e9b:	a1 28 28 03 10       	mov    0x10032828,%eax
   20ea0:	eb 19                	jmp    20ebb <mmap+0x5b>
   20ea2:	90                   	nop
   20ea3:	90                   	nop
   20ea4:	90                   	nop
   20ea5:	90                   	nop
   20ea6:	90                   	nop
   20ea7:	90                   	nop
   20ea8:	90                   	nop
   20ea9:	90                   	nop
   20eaa:	90                   	nop
   20eab:	90                   	nop
   20eac:	90                   	nop
   20ead:	90                   	nop
   20eae:	90                   	nop
   20eaf:	90                   	nop
   20eb0:	90                   	nop
   20eb1:	90                   	nop
   20eb2:	90                   	nop
   20eb3:	90                   	nop
   20eb4:	90                   	nop
   20eb5:	90                   	nop
   20eb6:	90                   	nop
   20eb7:	90                   	nop
   20eb8:	90                   	nop
   20eb9:	90                   	nop
   20eba:	90                   	nop
   20ebb:	83 e0 e0             	and    $0xffffffe0,%eax
   20ebe:	ff d0                	call   *%eax
   20ec0:	85 c0                	test   %eax,%eax
   20ec2:	89 c3                	mov    %eax,%ebx
   20ec4:	75 1a                	jne    20ee0 <mmap+0x80>
   20ec6:	8b 44 24 30          	mov    0x30(%esp),%eax
   20eca:	83 c4 28             	add    $0x28,%esp
   20ecd:	5b                   	pop    %ebx
   20ece:	59                   	pop    %ecx
   20ecf:	83 e1 e0             	and    $0xffffffe0,%ecx
   20ed2:	ff e1                	jmp    *%ecx
   20ed4:	8d b6 00 00 00 00    	lea    0x0(%esi),%esi
   20eda:	8d bf 00 00 00 00    	lea    0x0(%edi),%edi
   20ee0:	eb 19                	jmp    20efb <mmap+0x9b>
   20ee2:	90                   	nop
   20ee3:	90                   	nop
   20ee4:	90                   	nop
   20ee5:	90                   	nop
   20ee6:	90                   	nop
   20ee7:	90                   	nop
   20ee8:	90                   	nop
   20ee9:	90                   	nop
   20eea:	90                   	nop
   20eeb:	90                   	nop
   20eec:	90                   	nop
   20eed:	90                   	nop
   20eee:	90                   	nop
   20eef:	90                   	nop
   20ef0:	90                   	nop
   20ef1:	90                   	nop
   20ef2:	90                   	nop
   20ef3:	90                   	nop
   20ef4:	90                   	nop
   20ef5:	90                   	nop
   20ef6:	90                   	nop
   20ef7:	90                   	nop
   20ef8:	90                   	nop
   20ef9:	90                   	nop
   20efa:	90                   	nop
   20efb:	e8 80 00 00 00       	call   20f80 <__errno>
   20f00:	89 18                	mov    %ebx,(%eax)
   20f02:	83 c4 28             	add    $0x28,%esp
   20f05:	b8 ff ff ff ff       	mov    $0xffffffff,%eax
   20f0a:	5b                   	pop    %ebx
   20f0b:	59                   	pop    %ecx
   20f0c:	83 e1 e0             	and    $0xffffffe0,%ecx
   20f0f:	ff e1                	jmp    *%ecx
   20f11:	90                   	nop
   20f12:	90                   	nop
   20f13:	90                   	nop
   20f14:	90                   	nop
   20f15:	90                   	nop
   20f16:	90                   	nop
   20f17:	90                   	nop
   20f18:	90                   	nop
   20f19:	90                   	nop
   20f1a:	90                   	nop
   20f1b:	90                   	nop
   20f1c:	90                   	nop
   20f1d:	90                   	nop
   20f1e:	90                   	nop
   20f1f:	90                   	nop

00020f20 <atexit>:
   20f20:	55                   	push   %ebp
   20f21:	89 e5                	mov    %esp,%ebp
   20f23:	83 ec 18             	sub    $0x18,%esp
   20f26:	8b 45 08             	mov    0x8(%ebp),%eax
   20f29:	c7 44 24 0c 00 00 00 	movl   $0x0,0xc(%esp)
   20f30:	00 
   20f31:	c7 44 24 08 00 00 00 	movl   $0x0,0x8(%esp)
   20f38:	00 
   20f39:	c7 04 24 00 00 00 00 	movl   $0x0,(%esp)
   20f40:	89 44 24 04          	mov    %eax,0x4(%esp)
   20f44:	eb 15                	jmp    20f5b <atexit+0x3b>
   20f46:	90                   	nop
   20f47:	90                   	nop
   20f48:	90                   	nop
   20f49:	90                   	nop
   20f4a:	90                   	nop
   20f4b:	90                   	nop
   20f4c:	90                   	nop
   20f4d:	90                   	nop
   20f4e:	90                   	nop
   20f4f:	90                   	nop
   20f50:	90                   	nop
   20f51:	90                   	nop
   20f52:	90                   	nop
   20f53:	90                   	nop
   20f54:	90                   	nop
   20f55:	90                   	nop
   20f56:	90                   	nop
   20f57:	90                   	nop
   20f58:	90                   	nop
   20f59:	90                   	nop
   20f5a:	90                   	nop
   20f5b:	e8 e0 06 00 00       	call   21640 <__register_exitproc>
   20f60:	89 ec                	mov    %ebp,%esp
   20f62:	5d                   	pop    %ebp
   20f63:	59                   	pop    %ecx
   20f64:	83 e1 e0             	and    $0xffffffe0,%ecx
   20f67:	ff e1                	jmp    *%ecx
   20f69:	90                   	nop
   20f6a:	90                   	nop
   20f6b:	90                   	nop
   20f6c:	90                   	nop
   20f6d:	90                   	nop
   20f6e:	90                   	nop
   20f6f:	90                   	nop
   20f70:	90                   	nop
   20f71:	90                   	nop
   20f72:	90                   	nop
   20f73:	90                   	nop
   20f74:	90                   	nop
   20f75:	90                   	nop
   20f76:	90                   	nop
   20f77:	90                   	nop
   20f78:	90                   	nop
   20f79:	90                   	nop
   20f7a:	90                   	nop
   20f7b:	90                   	nop
   20f7c:	90                   	nop
   20f7d:	90                   	nop
   20f7e:	90                   	nop
   20f7f:	90                   	nop

00020f80 <__errno>:
   20f80:	55                   	push   %ebp
   20f81:	b8 88 fb ff ff       	mov    $0xfffffb88,%eax
   20f86:	65 8b 15 00 00 00 00 	mov    %gs:0x0,%edx
   20f8d:	89 e5                	mov    %esp,%ebp
   20f8f:	5d                   	pop    %ebp
   20f90:	59                   	pop    %ecx
   20f91:	8b 04 02             	mov    (%edx,%eax,1),%eax
   20f94:	83 e1 e0             	and    $0xffffffe0,%ecx
   20f97:	ff e1                	jmp    *%ecx
   20f99:	90                   	nop
   20f9a:	90                   	nop
   20f9b:	90                   	nop
   20f9c:	90                   	nop
   20f9d:	90                   	nop
   20f9e:	90                   	nop
   20f9f:	90                   	nop

00020fa0 <exit>:
   20fa0:	55                   	push   %ebp
   20fa1:	89 e5                	mov    %esp,%ebp
   20fa3:	53                   	push   %ebx
   20fa4:	83 ec 14             	sub    $0x14,%esp
   20fa7:	8b 5d 08             	mov    0x8(%ebp),%ebx
   20faa:	c7 44 24 04 00 00 00 	movl   $0x0,0x4(%esp)
   20fb1:	00 
   20fb2:	89 1c 24             	mov    %ebx,(%esp)
   20fb5:	8d b6 00 00 00 00    	lea    0x0(%esi),%esi
   20fbb:	e8 a0 08 00 00       	call   21860 <__call_exitprocs>
   20fc0:	8b 15 30 02 02 10    	mov    0x10020230,%edx
   20fc6:	8b 42 3c             	mov    0x3c(%edx),%eax
   20fc9:	85 c0                	test   %eax,%eax
   20fcb:	74 13                	je     20fe0 <exit+0x40>
   20fcd:	89 14 24             	mov    %edx,(%esp)
   20fd0:	8d 74 26 00          	lea    0x0(%esi,%eiz,1),%esi
   20fd4:	8d bc 27 00 00 00 00 	lea    0x0(%edi,%eiz,1),%edi
   20fdb:	83 e0 e0             	and    $0xffffffe0,%eax
   20fde:	ff d0                	call   *%eax
   20fe0:	89 1c 24             	mov    %ebx,(%esp)
   20fe3:	eb 16                	jmp    20ffb <exit+0x5b>
   20fe5:	90                   	nop
   20fe6:	90                   	nop
   20fe7:	90                   	nop
   20fe8:	90                   	nop
   20fe9:	90                   	nop
   20fea:	90                   	nop
   20feb:	90                   	nop
   20fec:	90                   	nop
   20fed:	90                   	nop
   20fee:	90                   	nop
   20fef:	90                   	nop
   20ff0:	90                   	nop
   20ff1:	90                   	nop
   20ff2:	90                   	nop
   20ff3:	90                   	nop
   20ff4:	90                   	nop
   20ff5:	90                   	nop
   20ff6:	90                   	nop
   20ff7:	90                   	nop
   20ff8:	90                   	nop
   20ff9:	90                   	nop
   20ffa:	90                   	nop
   20ffb:	e8 20 f3 ff ff       	call   20320 <_exit>

00021000 <__libc_fini_array>:
   21000:	55                   	push   %ebp
   21001:	89 e5                	mov    %esp,%ebp
   21003:	56                   	push   %esi
   21004:	53                   	push   %ebx
   21005:	bb 90 1b 03 10       	mov    $0x10031b90,%ebx
   2100a:	81 eb 90 1b 03 10    	sub    $0x10031b90,%ebx
   21010:	c1 fb 02             	sar    $0x2,%ebx
   21013:	85 db                	test   %ebx,%ebx
   21015:	74 49                	je     21060 <__libc_fini_array+0x60>
   21017:	8d 34 9d 8c 1b 03 10 	lea    0x10031b8c(,%ebx,4),%esi
   2101e:	66 90                	xchg   %ax,%ax
   21020:	8b 06                	mov    (%esi),%eax
   21022:	83 eb 01             	sub    $0x1,%ebx
   21025:	83 ee 04             	sub    $0x4,%esi
   21028:	eb 11                	jmp    2103b <__libc_fini_array+0x3b>
   2102a:	90                   	nop
   2102b:	90                   	nop
   2102c:	90                   	nop
   2102d:	90                   	nop
   2102e:	90                   	nop
   2102f:	90                   	nop
   21030:	90                   	nop
   21031:	90                   	nop
   21032:	90                   	nop
   21033:	90                   	nop
   21034:	90                   	nop
   21035:	90                   	nop
   21036:	90                   	nop
   21037:	90                   	nop
   21038:	90                   	nop
   21039:	90                   	nop
   2103a:	90                   	nop
   2103b:	83 e0 e0             	and    $0xffffffe0,%eax
   2103e:	ff d0                	call   *%eax
   21040:	85 db                	test   %ebx,%ebx
   21042:	75 dc                	jne    21020 <__libc_fini_array+0x20>
   21044:	eb 1a                	jmp    21060 <__libc_fini_array+0x60>
   21046:	90                   	nop
   21047:	90                   	nop
   21048:	90                   	nop
   21049:	90                   	nop
   2104a:	90                   	nop
   2104b:	90                   	nop
   2104c:	90                   	nop
   2104d:	90                   	nop
   2104e:	90                   	nop
   2104f:	90                   	nop
   21050:	90                   	nop
   21051:	90                   	nop
   21052:	90                   	nop
   21053:	90                   	nop
   21054:	90                   	nop
   21055:	90                   	nop
   21056:	90                   	nop
   21057:	90                   	nop
   21058:	90                   	nop
   21059:	90                   	nop
   2105a:	90                   	nop
   2105b:	90                   	nop
   2105c:	90                   	nop
   2105d:	90                   	nop
   2105e:	90                   	nop
   2105f:	90                   	nop
   21060:	5b                   	pop    %ebx
   21061:	5e                   	pop    %esi
   21062:	5d                   	pop    %ebp
   21063:	e9 18 9b 01 00       	jmp    3ab80 <_fini>
   21068:	90                   	nop
   21069:	90                   	nop
   2106a:	90                   	nop
   2106b:	90                   	nop
   2106c:	90                   	nop
   2106d:	90                   	nop
   2106e:	90                   	nop
   2106f:	90                   	nop
   21070:	90                   	nop
   21071:	90                   	nop
   21072:	90                   	nop
   21073:	90                   	nop
   21074:	90                   	nop
   21075:	90                   	nop
   21076:	90                   	nop
   21077:	90                   	nop
   21078:	90                   	nop
   21079:	90                   	nop
   2107a:	90                   	nop
   2107b:	90                   	nop
   2107c:	90                   	nop
   2107d:	90                   	nop
   2107e:	90                   	nop
   2107f:	90                   	nop

00021080 <__newlib_thread_init>:
   21080:	65 a1 00 00 00 00    	mov    %gs:0x0,%eax
   21086:	55                   	push   %ebp
   21087:	89 e5                	mov    %esp,%ebp
   21089:	8d 90 90 fb ff ff    	lea    -0x470(%eax),%edx
   2108f:	89 90 88 fb ff ff    	mov    %edx,-0x478(%eax)
   21095:	5d                   	pop    %ebp
   21096:	59                   	pop    %ecx
   21097:	83 e1 e0             	and    $0xffffffe0,%ecx
   2109a:	ff e1                	jmp    *%ecx
   2109c:	8d 74 26 00          	lea    0x0(%esi,%eiz,1),%esi

000210a0 <__newlib_thread_exit>:
   210a0:	55                   	push   %ebp
   210a1:	89 e5                	mov    %esp,%ebp
   210a3:	5d                   	pop    %ebp
   210a4:	59                   	pop    %ecx
   210a5:	83 e1 e0             	and    $0xffffffe0,%ecx
   210a8:	ff e1                	jmp    *%ecx
   210aa:	90                   	nop
   210ab:	90                   	nop
   210ac:	90                   	nop
   210ad:	90                   	nop
   210ae:	90                   	nop
   210af:	90                   	nop
   210b0:	90                   	nop
   210b1:	90                   	nop
   210b2:	90                   	nop
   210b3:	90                   	nop
   210b4:	90                   	nop
   210b5:	90                   	nop
   210b6:	90                   	nop
   210b7:	90                   	nop
   210b8:	90                   	nop
   210b9:	90                   	nop
   210ba:	90                   	nop
   210bb:	90                   	nop
   210bc:	90                   	nop
   210bd:	90                   	nop
   210be:	90                   	nop
   210bf:	90                   	nop

000210c0 <__libc_init_array>:
   210c0:	55                   	push   %ebp
   210c1:	89 e5                	mov    %esp,%ebp
   210c3:	56                   	push   %esi
   210c4:	be 90 1b 03 10       	mov    $0x10031b90,%esi
   210c9:	81 ee 90 1b 03 10    	sub    $0x10031b90,%esi
   210cf:	c1 fe 02             	sar    $0x2,%esi
   210d2:	85 f6                	test   %esi,%esi
   210d4:	53                   	push   %ebx
   210d5:	74 49                	je     21120 <__libc_init_array+0x60>
   210d7:	31 db                	xor    %ebx,%ebx
   210d9:	8d b4 26 00 00 00 00 	lea    0x0(%esi,%eiz,1),%esi
   210e0:	8b 04 9d 90 1b 03 10 	mov    0x10031b90(,%ebx,4),%eax
   210e7:	83 c3 01             	add    $0x1,%ebx
   210ea:	eb 0f                	jmp    210fb <__libc_init_array+0x3b>
   210ec:	90                   	nop
   210ed:	90                   	nop
   210ee:	90                   	nop
   210ef:	90                   	nop
   210f0:	90                   	nop
   210f1:	90                   	nop
   210f2:	90                   	nop
   210f3:	90                   	nop
   210f4:	90                   	nop
   210f5:	90                   	nop
   210f6:	90                   	nop
   210f7:	90                   	nop
   210f8:	90                   	nop
   210f9:	90                   	nop
   210fa:	90                   	nop
   210fb:	83 e0 e0             	and    $0xffffffe0,%eax
   210fe:	ff d0                	call   *%eax
   21100:	39 de                	cmp    %ebx,%esi
   21102:	77 dc                	ja     210e0 <__libc_init_array+0x20>
   21104:	eb 1a                	jmp    21120 <__libc_init_array+0x60>
   21106:	90                   	nop
   21107:	90                   	nop
   21108:	90                   	nop
   21109:	90                   	nop
   2110a:	90                   	nop
   2110b:	90                   	nop
   2110c:	90                   	nop
   2110d:	90                   	nop
   2110e:	90                   	nop
   2110f:	90                   	nop
   21110:	90                   	nop
   21111:	90                   	nop
   21112:	90                   	nop
   21113:	90                   	nop
   21114:	90                   	nop
   21115:	90                   	nop
   21116:	90                   	nop
   21117:	90                   	nop
   21118:	90                   	nop
   21119:	90                   	nop
   2111a:	90                   	nop
   2111b:	90                   	nop
   2111c:	90                   	nop
   2111d:	90                   	nop
   2111e:	90                   	nop
   2111f:	90                   	nop
   21120:	be 90 1b 03 10       	mov    $0x10031b90,%esi
   21125:	81 ee 90 1b 03 10    	sub    $0x10031b90,%esi
   2112b:	c1 fe 02             	sar    $0x2,%esi
   2112e:	8d b6 00 00 00 00    	lea    0x0(%esi),%esi
   21134:	8d bc 27 00 00 00 00 	lea    0x0(%edi,%eiz,1),%edi
   2113b:	e8 c0 ee ff ff       	call   20000 <_init>
   21140:	85 f6                	test   %esi,%esi
   21142:	74 5c                	je     211a0 <__libc_init_array+0xe0>
   21144:	31 db                	xor    %ebx,%ebx
   21146:	eb 18                	jmp    21160 <__libc_init_array+0xa0>
   21148:	90                   	nop
   21149:	90                   	nop
   2114a:	90                   	nop
   2114b:	90                   	nop
   2114c:	90                   	nop
   2114d:	90                   	nop
   2114e:	90                   	nop
   2114f:	90                   	nop
   21150:	90                   	nop
   21151:	90                   	nop
   21152:	90                   	nop
   21153:	90                   	nop
   21154:	90                   	nop
   21155:	90                   	nop
   21156:	90                   	nop
   21157:	90                   	nop
   21158:	90                   	nop
   21159:	90                   	nop
   2115a:	90                   	nop
   2115b:	90                   	nop
   2115c:	90                   	nop
   2115d:	90                   	nop
   2115e:	90                   	nop
   2115f:	90                   	nop
   21160:	8b 04 9d 90 1b 03 10 	mov    0x10031b90(,%ebx,4),%eax
   21167:	83 c3 01             	add    $0x1,%ebx
   2116a:	eb 0f                	jmp    2117b <__libc_init_array+0xbb>
   2116c:	90                   	nop
   2116d:	90                   	nop
   2116e:	90                   	nop
   2116f:	90                   	nop
   21170:	90                   	nop
   21171:	90                   	nop
   21172:	90                   	nop
   21173:	90                   	nop
   21174:	90                   	nop
   21175:	90                   	nop
   21176:	90                   	nop
   21177:	90                   	nop
   21178:	90                   	nop
   21179:	90                   	nop
   2117a:	90                   	nop
   2117b:	83 e0 e0             	and    $0xffffffe0,%eax
   2117e:	ff d0                	call   *%eax
   21180:	39 de                	cmp    %ebx,%esi
   21182:	77 dc                	ja     21160 <__libc_init_array+0xa0>
   21184:	eb 1a                	jmp    211a0 <__libc_init_array+0xe0>
   21186:	90                   	nop
   21187:	90                   	nop
   21188:	90                   	nop
   21189:	90                   	nop
   2118a:	90                   	nop
   2118b:	90                   	nop
   2118c:	90                   	nop
   2118d:	90                   	nop
   2118e:	90                   	nop
   2118f:	90                   	nop
   21190:	90                   	nop
   21191:	90                   	nop
   21192:	90                   	nop
   21193:	90                   	nop
   21194:	90                   	nop
   21195:	90                   	nop
   21196:	90                   	nop
   21197:	90                   	nop
   21198:	90                   	nop
   21199:	90                   	nop
   2119a:	90                   	nop
   2119b:	90                   	nop
   2119c:	90                   	nop
   2119d:	90                   	nop
   2119e:	90                   	nop
   2119f:	90                   	nop
   211a0:	5b                   	pop    %ebx
   211a1:	5e                   	pop    %esi
   211a2:	5d                   	pop    %ebp
   211a3:	59                   	pop    %ecx
   211a4:	83 e1 e0             	and    $0xffffffe0,%ecx
   211a7:	ff e1                	jmp    *%ecx
   211a9:	90                   	nop
   211aa:	90                   	nop
   211ab:	90                   	nop
   211ac:	90                   	nop
   211ad:	90                   	nop
   211ae:	90                   	nop
   211af:	90                   	nop
   211b0:	90                   	nop
   211b1:	90                   	nop
   211b2:	90                   	nop
   211b3:	90                   	nop
   211b4:	90                   	nop
   211b5:	90                   	nop
   211b6:	90                   	nop
   211b7:	90                   	nop
   211b8:	90                   	nop
   211b9:	90                   	nop
   211ba:	90                   	nop
   211bb:	90                   	nop
   211bc:	90                   	nop
   211bd:	90                   	nop
   211be:	90                   	nop
   211bf:	90                   	nop

000211c0 <memcpy>:
   211c0:	55                   	push   %ebp
   211c1:	89 e5                	mov    %esp,%ebp
   211c3:	56                   	push   %esi
   211c4:	57                   	push   %edi
   211c5:	53                   	push   %ebx
   211c6:	8b 7d 08             	mov    0x8(%ebp),%edi
   211c9:	8b 4d 10             	mov    0x10(%ebp),%ecx
   211cc:	8b 75 0c             	mov    0xc(%ebp),%esi
   211cf:	fc                   	cld    
   211d0:	83 f9 08             	cmp    $0x8,%ecx
   211d3:	76 2a                	jbe    211ff <memcpy+0x3f>
   211d5:	89 fa                	mov    %edi,%edx
   211d7:	89 cb                	mov    %ecx,%ebx
   211d9:	83 e2 03             	and    $0x3,%edx
   211dc:	8d 74 26 00          	lea    0x0(%esi,%eiz,1),%esi
   211e0:	74 10                	je     211f2 <memcpy+0x32>
   211e2:	b9 04 00 00 00       	mov    $0x4,%ecx
   211e7:	29 d1                	sub    %edx,%ecx
   211e9:	83 e1 03             	and    $0x3,%ecx
   211ec:	29 cb                	sub    %ecx,%ebx
   211ee:	f3 a4                	rep movsb %ds:(%esi),%es:(%edi)
   211f0:	89 d9                	mov    %ebx,%ecx
   211f2:	c1 e9 02             	shr    $0x2,%ecx
   211f5:	8d 76 00             	lea    0x0(%esi),%esi
   211f8:	f3 a5                	rep movsl %ds:(%esi),%es:(%edi)
   211fa:	89 d9                	mov    %ebx,%ecx
   211fc:	83 e1 03             	and    $0x3,%ecx
   211ff:	90                   	nop
   21200:	f3 a4                	rep movsb %ds:(%esi),%es:(%edi)
   21202:	8b 45 08             	mov    0x8(%ebp),%eax
   21205:	8d 65 f4             	lea    -0xc(%ebp),%esp
   21208:	5b                   	pop    %ebx
   21209:	5f                   	pop    %edi
   2120a:	5e                   	pop    %esi
   2120b:	c9                   	leave  
   2120c:	59                   	pop    %ecx
   2120d:	83 e1 e0             	and    $0xffffffe0,%ecx
   21210:	ff e1                	jmp    *%ecx
   21212:	90                   	nop
   21213:	90                   	nop
   21214:	90                   	nop
   21215:	90                   	nop
   21216:	90                   	nop
   21217:	90                   	nop
   21218:	90                   	nop
   21219:	90                   	nop
   2121a:	90                   	nop
   2121b:	90                   	nop
   2121c:	90                   	nop
   2121d:	90                   	nop
   2121e:	90                   	nop
   2121f:	90                   	nop

00021220 <memset>:
   21220:	55                   	push   %ebp
   21221:	89 e5                	mov    %esp,%ebp
   21223:	57                   	push   %edi
   21224:	8b 7d 08             	mov    0x8(%ebp),%edi
   21227:	0f b6 45 0c          	movzbl 0xc(%ebp),%eax
   2122b:	8b 4d 10             	mov    0x10(%ebp),%ecx
   2122e:	fc                   	cld    
   2122f:	83 f9 10             	cmp    $0x10,%ecx
   21232:	76 6e                	jbe    212a2 <memset+0x82>
   21234:	f7 c7 07 00 00 00    	test   $0x7,%edi
   2123a:	74 50                	je     2128c <memset+0x6c>
   2123c:	88 07                	mov    %al,(%edi)
   2123e:	47                   	inc    %edi
   2123f:	49                   	dec    %ecx
   21240:	f7 c7 07 00 00 00    	test   $0x7,%edi
   21246:	74 44                	je     2128c <memset+0x6c>
   21248:	88 07                	mov    %al,(%edi)
   2124a:	47                   	inc    %edi
   2124b:	49                   	dec    %ecx
   2124c:	f7 c7 07 00 00 00    	test   $0x7,%edi
   21252:	74 38                	je     2128c <memset+0x6c>
   21254:	88 07                	mov    %al,(%edi)
   21256:	47                   	inc    %edi
   21257:	49                   	dec    %ecx
   21258:	f7 c7 07 00 00 00    	test   $0x7,%edi
   2125e:	66 90                	xchg   %ax,%ax
   21260:	74 2a                	je     2128c <memset+0x6c>
   21262:	88 07                	mov    %al,(%edi)
   21264:	47                   	inc    %edi
   21265:	49                   	dec    %ecx
   21266:	f7 c7 07 00 00 00    	test   $0x7,%edi
   2126c:	74 1e                	je     2128c <memset+0x6c>
   2126e:	88 07                	mov    %al,(%edi)
   21270:	47                   	inc    %edi
   21271:	49                   	dec    %ecx
   21272:	f7 c7 07 00 00 00    	test   $0x7,%edi
   21278:	74 12                	je     2128c <memset+0x6c>
   2127a:	88 07                	mov    %al,(%edi)
   2127c:	47                   	inc    %edi
   2127d:	49                   	dec    %ecx
   2127e:	66 90                	xchg   %ax,%ax
   21280:	f7 c7 07 00 00 00    	test   $0x7,%edi
   21286:	74 04                	je     2128c <memset+0x6c>
   21288:	88 07                	mov    %al,(%edi)
   2128a:	47                   	inc    %edi
   2128b:	49                   	dec    %ecx
   2128c:	88 c4                	mov    %al,%ah
   2128e:	89 c2                	mov    %eax,%edx
   21290:	c1 e2 10             	shl    $0x10,%edx
   21293:	09 d0                	or     %edx,%eax
   21295:	89 ca                	mov    %ecx,%edx
   21297:	c1 e9 02             	shr    $0x2,%ecx
   2129a:	83 e2 03             	and    $0x3,%edx
   2129d:	f3 ab                	rep stos %eax,%es:(%edi)
   2129f:	90                   	nop
   212a0:	89 d1                	mov    %edx,%ecx
   212a2:	f3 aa                	rep stos %al,%es:(%edi)
   212a4:	8b 45 08             	mov    0x8(%ebp),%eax
   212a7:	8d 65 fc             	lea    -0x4(%ebp),%esp
   212aa:	5f                   	pop    %edi
   212ab:	c9                   	leave  
   212ac:	59                   	pop    %ecx
   212ad:	83 e1 e0             	and    $0xffffffe0,%ecx
   212b0:	ff e1                	jmp    *%ecx
   212b2:	90                   	nop
   212b3:	90                   	nop
   212b4:	90                   	nop
   212b5:	90                   	nop
   212b6:	90                   	nop
   212b7:	90                   	nop
   212b8:	90                   	nop
   212b9:	90                   	nop
   212ba:	90                   	nop
   212bb:	90                   	nop
   212bc:	90                   	nop
   212bd:	90                   	nop
   212be:	90                   	nop
   212bf:	90                   	nop

000212c0 <_puts_r>:
   212c0:	55                   	push   %ebp
   212c1:	89 e5                	mov    %esp,%ebp
   212c3:	56                   	push   %esi
   212c4:	53                   	push   %ebx
   212c5:	83 ec 30             	sub    $0x30,%esp
   212c8:	8b 5d 0c             	mov    0xc(%ebp),%ebx
   212cb:	8b 75 08             	mov    0x8(%ebp),%esi
   212ce:	89 1c 24             	mov    %ebx,(%esp)
   212d1:	8d 76 00             	lea    0x0(%esi),%esi
   212d4:	8d bc 27 00 00 00 00 	lea    0x0(%edi,%eiz,1),%edi
   212db:	e8 60 01 00 00       	call   21440 <strlen>
   212e0:	89 5d dc             	mov    %ebx,-0x24(%ebp)
   212e3:	8b 5e 08             	mov    0x8(%esi),%ebx
   212e6:	c7 45 e4 a1 02 02 10 	movl   $0x100202a1,-0x1c(%ebp)
   212ed:	c7 45 e8 01 00 00 00 	movl   $0x1,-0x18(%ebp)
   212f4:	c7 45 f0 02 00 00 00 	movl   $0x2,-0x10(%ebp)
   212fb:	0f b7 53 0c          	movzwl 0xc(%ebx),%edx
   212ff:	90                   	nop
   21300:	89 45 e0             	mov    %eax,-0x20(%ebp)
   21303:	83 c0 01             	add    $0x1,%eax
   21306:	89 45 f4             	mov    %eax,-0xc(%ebp)
   21309:	8d 45 dc             	lea    -0x24(%ebp),%eax
   2130c:	89 45 ec             	mov    %eax,-0x14(%ebp)
   2130f:	0f bf c2             	movswl %dx,%eax
   21312:	f6 c4 02             	test   $0x2,%ah
   21315:	0f 84 85 00 00 00    	je     213a0 <_puts_r+0xe0>
   2131b:	90                   	nop
   2131c:	8d 74 26 00          	lea    0x0(%esi,%eiz,1),%esi
   21320:	f6 c4 20             	test   $0x20,%ah
   21323:	75 1b                	jne    21340 <_puts_r+0x80>
   21325:	81 63 78 ff df ff ff 	andl   $0xffffdfff,0x78(%ebx)
   2132c:	80 ce 20             	or     $0x20,%dh
   2132f:	66 89 53 0c          	mov    %dx,0xc(%ebx)
   21333:	8d b6 00 00 00 00    	lea    0x0(%esi),%esi
   21339:	8d bc 27 00 00 00 00 	lea    0x0(%edi,%eiz,1),%edi
   21340:	8d 45 ec             	lea    -0x14(%ebp),%eax
   21343:	89 34 24             	mov    %esi,(%esp)
   21346:	89 44 24 08          	mov    %eax,0x8(%esp)
   2134a:	89 5c 24 04          	mov    %ebx,0x4(%esp)
   2134e:	8d b6 00 00 00 00    	lea    0x0(%esi),%esi
   21354:	8d bc 27 00 00 00 00 	lea    0x0(%edi,%eiz,1),%edi
   2135b:	e8 20 08 00 00       	call   21b80 <__sfvwrite_r>
   21360:	83 f8 01             	cmp    $0x1,%eax
   21363:	19 f6                	sbb    %esi,%esi
   21365:	83 e6 0b             	and    $0xb,%esi
   21368:	83 ee 01             	sub    $0x1,%esi
   2136b:	f6 43 0d 02          	testb  $0x2,0xd(%ebx)
   2136f:	75 0f                	jne    21380 <_puts_r+0xc0>
   21371:	83 c3 5c             	add    $0x5c,%ebx
   21374:	89 1c 24             	mov    %ebx,(%esp)
   21377:	8d 74 26 00          	lea    0x0(%esi,%eiz,1),%esi
   2137b:	e8 80 31 00 00       	call   24500 <__local_lock_release_recursive>
   21380:	83 c4 30             	add    $0x30,%esp
   21383:	89 f0                	mov    %esi,%eax
   21385:	5b                   	pop    %ebx
   21386:	5e                   	pop    %esi
   21387:	5d                   	pop    %ebp
   21388:	59                   	pop    %ecx
   21389:	83 e1 e0             	and    $0xffffffe0,%ecx
   2138c:	ff e1                	jmp    *%ecx
   2138e:	eb 10                	jmp    213a0 <_puts_r+0xe0>
   21390:	90                   	nop
   21391:	90                   	nop
   21392:	90                   	nop
   21393:	90                   	nop
   21394:	90                   	nop
   21395:	90                   	nop
   21396:	90                   	nop
   21397:	90                   	nop
   21398:	90                   	nop
   21399:	90                   	nop
   2139a:	90                   	nop
   2139b:	90                   	nop
   2139c:	90                   	nop
   2139d:	90                   	nop
   2139e:	90                   	nop
   2139f:	90                   	nop
   213a0:	8d 43 5c             	lea    0x5c(%ebx),%eax
   213a3:	89 04 24             	mov    %eax,(%esp)
   213a6:	eb 13                	jmp    213bb <_puts_r+0xfb>
   213a8:	90                   	nop
   213a9:	90                   	nop
   213aa:	90                   	nop
   213ab:	90                   	nop
   213ac:	90                   	nop
   213ad:	90                   	nop
   213ae:	90                   	nop
   213af:	90                   	nop
   213b0:	90                   	nop
   213b1:	90                   	nop
   213b2:	90                   	nop
   213b3:	90                   	nop
   213b4:	90                   	nop
   213b5:	90                   	nop
   213b6:	90                   	nop
   213b7:	90                   	nop
   213b8:	90                   	nop
   213b9:	90                   	nop
   213ba:	90                   	nop
   213bb:	e8 c0 30 00 00       	call   24480 <__local_lock_acquire_recursive>
   213c0:	0f b7 53 0c          	movzwl 0xc(%ebx),%edx
   213c4:	0f bf c2             	movswl %dx,%eax
   213c7:	e9 54 ff ff ff       	jmp    21320 <_puts_r+0x60>
   213cc:	eb 12                	jmp    213e0 <puts>
   213ce:	90                   	nop
   213cf:	90                   	nop
   213d0:	90                   	nop
   213d1:	90                   	nop
   213d2:	90                   	nop
   213d3:	90                   	nop
   213d4:	90                   	nop
   213d5:	90                   	nop
   213d6:	90                   	nop
   213d7:	90                   	nop
   213d8:	90                   	nop
   213d9:	90                   	nop
   213da:	90                   	nop
   213db:	90                   	nop
   213dc:	90                   	nop
   213dd:	90                   	nop
   213de:	90                   	nop
   213df:	90                   	nop

000213e0 <puts>:
   213e0:	55                   	push   %ebp
   213e1:	65 8b 15 00 00 00 00 	mov    %gs:0x0,%edx
   213e8:	89 e5                	mov    %esp,%ebp
   213ea:	83 ec 18             	sub    $0x18,%esp
   213ed:	8b 45 08             	mov    0x8(%ebp),%eax
   213f0:	89 44 24 04          	mov    %eax,0x4(%esp)
   213f4:	b8 88 fb ff ff       	mov    $0xfffffb88,%eax
   213f9:	8b 04 02             	mov    (%edx,%eax,1),%eax
   213fc:	89 04 24             	mov    %eax,(%esp)
   213ff:	90                   	nop
   21400:	eb 19                	jmp    2141b <puts+0x3b>
   21402:	90                   	nop
   21403:	90                   	nop
   21404:	90                   	nop
   21405:	90                   	nop
   21406:	90                   	nop
   21407:	90                   	nop
   21408:	90                   	nop
   21409:	90                   	nop
   2140a:	90                   	nop
   2140b:	90                   	nop
   2140c:	90                   	nop
   2140d:	90                   	nop
   2140e:	90                   	nop
   2140f:	90                   	nop
   21410:	90                   	nop
   21411:	90                   	nop
   21412:	90                   	nop
   21413:	90                   	nop
   21414:	90                   	nop
   21415:	90                   	nop
   21416:	90                   	nop
   21417:	90                   	nop
   21418:	90                   	nop
   21419:	90                   	nop
   2141a:	90                   	nop
   2141b:	e8 a0 fe ff ff       	call   212c0 <_puts_r>
   21420:	89 ec                	mov    %ebp,%esp
   21422:	5d                   	pop    %ebp
   21423:	59                   	pop    %ecx
   21424:	83 e1 e0             	and    $0xffffffe0,%ecx
   21427:	ff e1                	jmp    *%ecx
   21429:	90                   	nop
   2142a:	90                   	nop
   2142b:	90                   	nop
   2142c:	90                   	nop
   2142d:	90                   	nop
   2142e:	90                   	nop
   2142f:	90                   	nop
   21430:	90                   	nop
   21431:	90                   	nop
   21432:	90                   	nop
   21433:	90                   	nop
   21434:	90                   	nop
   21435:	90                   	nop
   21436:	90                   	nop
   21437:	90                   	nop
   21438:	90                   	nop
   21439:	90                   	nop
   2143a:	90                   	nop
   2143b:	90                   	nop
   2143c:	90                   	nop
   2143d:	90                   	nop
   2143e:	90                   	nop
   2143f:	90                   	nop

00021440 <strlen>:
   21440:	55                   	push   %ebp
   21441:	89 e5                	mov    %esp,%ebp
   21443:	57                   	push   %edi
   21444:	8b 55 08             	mov    0x8(%ebp),%edx
   21447:	89 d7                	mov    %edx,%edi
   21449:	f7 c7 03 00 00 00    	test   $0x3,%edi
   2144f:	74 27                	je     21478 <L5>
   21451:	8a 0f                	mov    (%edi),%cl
   21453:	47                   	inc    %edi
   21454:	84 c9                	test   %cl,%cl
   21456:	74 5b                	je     214b3 <L15>
   21458:	f7 c7 03 00 00 00    	test   $0x3,%edi
   2145e:	66 90                	xchg   %ax,%ax
   21460:	74 16                	je     21478 <L5>
   21462:	8a 0f                	mov    (%edi),%cl
   21464:	47                   	inc    %edi
   21465:	84 c9                	test   %cl,%cl
   21467:	74 4a                	je     214b3 <L15>
   21469:	f7 c7 03 00 00 00    	test   $0x3,%edi
   2146f:	74 07                	je     21478 <L5>
   21471:	8a 0f                	mov    (%edi),%cl
   21473:	47                   	inc    %edi
   21474:	84 c9                	test   %cl,%cl
   21476:	74 3b                	je     214b3 <L15>

00021478 <L5>:
   21478:	83 ef 04             	sub    $0x4,%edi
   2147b:	90                   	nop
   2147c:	8d 74 26 00          	lea    0x0(%esi,%eiz,1),%esi

00021480 <L10>:
   21480:	83 c7 04             	add    $0x4,%edi
   21483:	8b 0f                	mov    (%edi),%ecx
   21485:	8d 81 ff fe fe fe    	lea    -0x1010101(%ecx),%eax
   2148b:	f7 d1                	not    %ecx
   2148d:	21 c8                	and    %ecx,%eax
   2148f:	a9 80 80 80 80       	test   $0x80808080,%eax
   21494:	74 ea                	je     21480 <L10>
   21496:	f7 d1                	not    %ecx
   21498:	47                   	inc    %edi
   21499:	84 c9                	test   %cl,%cl
   2149b:	90                   	nop
   2149c:	8d 74 26 00          	lea    0x0(%esi,%eiz,1),%esi
   214a0:	74 11                	je     214b3 <L15>
   214a2:	47                   	inc    %edi
   214a3:	c1 e9 08             	shr    $0x8,%ecx
   214a6:	84 c9                	test   %cl,%cl
   214a8:	74 09                	je     214b3 <L15>
   214aa:	47                   	inc    %edi
   214ab:	c1 e9 08             	shr    $0x8,%ecx
   214ae:	84 c9                	test   %cl,%cl
   214b0:	74 01                	je     214b3 <L15>
   214b2:	47                   	inc    %edi

000214b3 <L15>:
   214b3:	29 d7                	sub    %edx,%edi
   214b5:	8d 47 ff             	lea    -0x1(%edi),%eax
   214b8:	8d 65 fc             	lea    -0x4(%ebp),%esp
   214bb:	5f                   	pop    %edi
   214bc:	c9                   	leave  
   214bd:	59                   	pop    %ecx
   214be:	66 90                	xchg   %ax,%ax
   214c0:	83 e1 e0             	and    $0xffffffe0,%ecx
   214c3:	ff e1                	jmp    *%ecx
   214c5:	90                   	nop
   214c6:	90                   	nop
   214c7:	90                   	nop
   214c8:	90                   	nop
   214c9:	90                   	nop
   214ca:	90                   	nop
   214cb:	90                   	nop
   214cc:	90                   	nop
   214cd:	90                   	nop
   214ce:	90                   	nop
   214cf:	90                   	nop
   214d0:	90                   	nop
   214d1:	90                   	nop
   214d2:	90                   	nop
   214d3:	90                   	nop
   214d4:	90                   	nop
   214d5:	90                   	nop
   214d6:	90                   	nop
   214d7:	90                   	nop
   214d8:	90                   	nop
   214d9:	90                   	nop
   214da:	90                   	nop
   214db:	90                   	nop
   214dc:	90                   	nop
   214dd:	90                   	nop
   214de:	90                   	nop
   214df:	90                   	nop

000214e0 <_system_r>:
   214e0:	55                   	push   %ebp
   214e1:	b8 01 00 00 00       	mov    $0x1,%eax
   214e6:	89 e5                	mov    %esp,%ebp
   214e8:	83 ec 38             	sub    $0x38,%esp
   214eb:	8b 55 0c             	mov    0xc(%ebp),%edx
   214ee:	85 d2                	test   %edx,%edx
   214f0:	74 6e                	je     21560 <_system_r+0x80>
   214f2:	c7 45 e4 3c 02 02 10 	movl   $0x1002023c,-0x1c(%ebp)
   214f9:	c7 45 e8 34 02 02 10 	movl   $0x10020234,-0x18(%ebp)
   21500:	89 55 ec             	mov    %edx,-0x14(%ebp)
   21503:	c7 45 f0 00 00 00 00 	movl   $0x0,-0x10(%ebp)
   2150a:	eb 0f                	jmp    2151b <_system_r+0x3b>
   2150c:	90                   	nop
   2150d:	90                   	nop
   2150e:	90                   	nop
   2150f:	90                   	nop
   21510:	90                   	nop
   21511:	90                   	nop
   21512:	90                   	nop
   21513:	90                   	nop
   21514:	90                   	nop
   21515:	90                   	nop
   21516:	90                   	nop
   21517:	90                   	nop
   21518:	90                   	nop
   21519:	90                   	nop
   2151a:	90                   	nop
   2151b:	e8 40 33 00 00       	call   24860 <fork>
   21520:	85 c0                	test   %eax,%eax
   21522:	74 7c                	je     215a0 <_system_r+0xc0>
   21524:	83 f8 ff             	cmp    $0xffffffff,%eax
   21527:	74 57                	je     21580 <_system_r+0xa0>
   21529:	8d 45 f4             	lea    -0xc(%ebp),%eax
   2152c:	89 04 24             	mov    %eax,(%esp)
   2152f:	8d b6 00 00 00 00    	lea    0x0(%esi),%esi
   21535:	8d bf 00 00 00 00    	lea    0x0(%edi),%edi
   2153b:	e8 60 33 00 00       	call   248a0 <wait>
   21540:	83 f8 ff             	cmp    $0xffffffff,%eax
   21543:	74 3b                	je     21580 <_system_r+0xa0>
   21545:	0f b6 45 f5          	movzbl -0xb(%ebp),%eax
   21549:	eb 15                	jmp    21560 <_system_r+0x80>
   2154b:	90                   	nop
   2154c:	90                   	nop
   2154d:	90                   	nop
   2154e:	90                   	nop
   2154f:	90                   	nop
   21550:	90                   	nop
   21551:	90                   	nop
   21552:	90                   	nop
   21553:	90                   	nop
   21554:	90                   	nop
   21555:	90                   	nop
   21556:	90                   	nop
   21557:	90                   	nop
   21558:	90                   	nop
   21559:	90                   	nop
   2155a:	90                   	nop
   2155b:	90                   	nop
   2155c:	90                   	nop
   2155d:	90                   	nop
   2155e:	90                   	nop
   2155f:	90                   	nop
   21560:	89 ec                	mov    %ebp,%esp
   21562:	5d                   	pop    %ebp
   21563:	59                   	pop    %ecx
   21564:	83 e1 e0             	and    $0xffffffe0,%ecx
   21567:	ff e1                	jmp    *%ecx
   21569:	eb 15                	jmp    21580 <_system_r+0xa0>
   2156b:	90                   	nop
   2156c:	90                   	nop
   2156d:	90                   	nop
   2156e:	90                   	nop
   2156f:	90                   	nop
   21570:	90                   	nop
   21571:	90                   	nop
   21572:	90                   	nop
   21573:	90                   	nop
   21574:	90                   	nop
   21575:	90                   	nop
   21576:	90                   	nop
   21577:	90                   	nop
   21578:	90                   	nop
   21579:	90                   	nop
   2157a:	90                   	nop
   2157b:	90                   	nop
   2157c:	90                   	nop
   2157d:	90                   	nop
   2157e:	90                   	nop
   2157f:	90                   	nop
   21580:	89 ec                	mov    %ebp,%esp
   21582:	b8 ff ff ff ff       	mov    $0xffffffff,%eax
   21587:	5d                   	pop    %ebp
   21588:	59                   	pop    %ecx
   21589:	83 e1 e0             	and    $0xffffffe0,%ecx
   2158c:	ff e1                	jmp    *%ecx
   2158e:	eb 10                	jmp    215a0 <_system_r+0xc0>
   21590:	90                   	nop
   21591:	90                   	nop
   21592:	90                   	nop
   21593:	90                   	nop
   21594:	90                   	nop
   21595:	90                   	nop
   21596:	90                   	nop
   21597:	90                   	nop
   21598:	90                   	nop
   21599:	90                   	nop
   2159a:	90                   	nop
   2159b:	90                   	nop
   2159c:	90                   	nop
   2159d:	90                   	nop
   2159e:	90                   	nop
   2159f:	90                   	nop
   215a0:	a1 00 1c 03 10       	mov    0x10031c00,%eax
   215a5:	c7 04 24 37 02 02 10 	movl   $0x10020237,(%esp)
   215ac:	89 44 24 08          	mov    %eax,0x8(%esp)
   215b0:	8d 45 e4             	lea    -0x1c(%ebp),%eax
   215b3:	89 44 24 04          	mov    %eax,0x4(%esp)
   215b7:	8d 74 26 00          	lea    0x0(%esi,%eiz,1),%esi
   215bb:	e8 a0 05 00 00       	call   21b60 <execve>
   215c0:	c7 04 24 64 00 00 00 	movl   $0x64,(%esp)
   215c7:	eb 12                	jmp    215db <_system_r+0xfb>
   215c9:	90                   	nop
   215ca:	90                   	nop
   215cb:	90                   	nop
   215cc:	90                   	nop
   215cd:	90                   	nop
   215ce:	90                   	nop
   215cf:	90                   	nop
   215d0:	90                   	nop
   215d1:	90                   	nop
   215d2:	90                   	nop
   215d3:	90                   	nop
   215d4:	90                   	nop
   215d5:	90                   	nop
   215d6:	90                   	nop
   215d7:	90                   	nop
   215d8:	90                   	nop
   215d9:	90                   	nop
   215da:	90                   	nop
   215db:	e8 c0 f9 ff ff       	call   20fa0 <exit>

000215e0 <system>:
   215e0:	55                   	push   %ebp
   215e1:	65 8b 15 00 00 00 00 	mov    %gs:0x0,%edx
   215e8:	89 e5                	mov    %esp,%ebp
   215ea:	83 ec 18             	sub    $0x18,%esp
   215ed:	8b 45 08             	mov    0x8(%ebp),%eax
   215f0:	89 44 24 04          	mov    %eax,0x4(%esp)
   215f4:	b8 88 fb ff ff       	mov    $0xfffffb88,%eax
   215f9:	8b 04 02             	mov    (%edx,%eax,1),%eax
   215fc:	89 04 24             	mov    %eax,(%esp)
   215ff:	90                   	nop
   21600:	eb 19                	jmp    2161b <system+0x3b>
   21602:	90                   	nop
   21603:	90                   	nop
   21604:	90                   	nop
   21605:	90                   	nop
   21606:	90                   	nop
   21607:	90                   	nop
   21608:	90                   	nop
   21609:	90                   	nop
   2160a:	90                   	nop
   2160b:	90                   	nop
   2160c:	90                   	nop
   2160d:	90                   	nop
   2160e:	90                   	nop
   2160f:	90                   	nop
   21610:	90                   	nop
   21611:	90                   	nop
   21612:	90                   	nop
   21613:	90                   	nop
   21614:	90                   	nop
   21615:	90                   	nop
   21616:	90                   	nop
   21617:	90                   	nop
   21618:	90                   	nop
   21619:	90                   	nop
   2161a:	90                   	nop
   2161b:	e8 c0 fe ff ff       	call   214e0 <_system_r>
   21620:	89 ec                	mov    %ebp,%esp
   21622:	5d                   	pop    %ebp
   21623:	59                   	pop    %ecx
   21624:	83 e1 e0             	and    $0xffffffe0,%ecx
   21627:	ff e1                	jmp    *%ecx
   21629:	90                   	nop
   2162a:	90                   	nop
   2162b:	90                   	nop
   2162c:	90                   	nop
   2162d:	90                   	nop
   2162e:	90                   	nop
   2162f:	90                   	nop
   21630:	90                   	nop
   21631:	90                   	nop
   21632:	90                   	nop
   21633:	90                   	nop
   21634:	90                   	nop
   21635:	90                   	nop
   21636:	90                   	nop
   21637:	90                   	nop
   21638:	90                   	nop
   21639:	90                   	nop
   2163a:	90                   	nop
   2163b:	90                   	nop
   2163c:	90                   	nop
   2163d:	90                   	nop
   2163e:	90                   	nop
   2163f:	90                   	nop

00021640 <__register_exitproc>:
   21640:	55                   	push   %ebp
   21641:	89 e5                	mov    %esp,%ebp
   21643:	83 ec 28             	sub    $0x28,%esp
   21646:	c7 04 24 90 20 03 10 	movl   $0x10032090,(%esp)
   2164d:	89 5d f4             	mov    %ebx,-0xc(%ebp)
   21650:	8b 5d 08             	mov    0x8(%ebp),%ebx
   21653:	89 75 f8             	mov    %esi,-0x8(%ebp)
   21656:	89 7d fc             	mov    %edi,-0x4(%ebp)
   21659:	66 90                	xchg   %ax,%ax
   2165b:	e8 20 2e 00 00       	call   24480 <__local_lock_acquire_recursive>
   21660:	8b 35 30 02 02 10    	mov    0x10020230,%esi
   21666:	8b 86 48 01 00 00    	mov    0x148(%esi),%eax
   2166c:	85 c0                	test   %eax,%eax
   2166e:	0f 84 ec 00 00 00    	je     21760 <__register_exitproc+0x120>
   21674:	8d b6 00 00 00 00    	lea    0x0(%esi),%esi
   2167a:	8d bf 00 00 00 00    	lea    0x0(%edi),%edi
   21680:	8b 78 04             	mov    0x4(%eax),%edi
   21683:	83 ff 1f             	cmp    $0x1f,%edi
   21686:	0f 8f f4 00 00 00    	jg     21780 <__register_exitproc+0x140>
   2168c:	eb 12                	jmp    216a0 <__register_exitproc+0x60>
   2168e:	90                   	nop
   2168f:	90                   	nop
   21690:	90                   	nop
   21691:	90                   	nop
   21692:	90                   	nop
   21693:	90                   	nop
   21694:	90                   	nop
   21695:	90                   	nop
   21696:	90                   	nop
   21697:	90                   	nop
   21698:	90                   	nop
   21699:	90                   	nop
   2169a:	90                   	nop
   2169b:	90                   	nop
   2169c:	90                   	nop
   2169d:	90                   	nop
   2169e:	90                   	nop
   2169f:	90                   	nop
   216a0:	85 db                	test   %ebx,%ebx
   216a2:	75 7c                	jne    21720 <__register_exitproc+0xe0>
   216a4:	eb 1a                	jmp    216c0 <__register_exitproc+0x80>
   216a6:	90                   	nop
   216a7:	90                   	nop
   216a8:	90                   	nop
   216a9:	90                   	nop
   216aa:	90                   	nop
   216ab:	90                   	nop
   216ac:	90                   	nop
   216ad:	90                   	nop
   216ae:	90                   	nop
   216af:	90                   	nop
   216b0:	90                   	nop
   216b1:	90                   	nop
   216b2:	90                   	nop
   216b3:	90                   	nop
   216b4:	90                   	nop
   216b5:	90                   	nop
   216b6:	90                   	nop
   216b7:	90                   	nop
   216b8:	90                   	nop
   216b9:	90                   	nop
   216ba:	90                   	nop
   216bb:	90                   	nop
   216bc:	90                   	nop
   216bd:	90                   	nop
   216be:	90                   	nop
   216bf:	90                   	nop
   216c0:	8b 55 0c             	mov    0xc(%ebp),%edx
   216c3:	89 54 b8 08          	mov    %edx,0x8(%eax,%edi,4)
   216c7:	83 c7 01             	add    $0x1,%edi
   216ca:	89 78 04             	mov    %edi,0x4(%eax)
   216cd:	c7 04 24 90 20 03 10 	movl   $0x10032090,(%esp)
   216d4:	8d b4 26 00 00 00 00 	lea    0x0(%esi,%eiz,1),%esi
   216db:	e8 20 2e 00 00       	call   24500 <__local_lock_release_recursive>
   216e0:	31 c0                	xor    %eax,%eax
   216e2:	eb 1c                	jmp    21700 <__register_exitproc+0xc0>
   216e4:	90                   	nop
   216e5:	90                   	nop
   216e6:	90                   	nop
   216e7:	90                   	nop
   216e8:	90                   	nop
   216e9:	90                   	nop
   216ea:	90                   	nop
   216eb:	90                   	nop
   216ec:	90                   	nop
   216ed:	90                   	nop
   216ee:	90                   	nop
   216ef:	90                   	nop
   216f0:	90                   	nop
   216f1:	90                   	nop
   216f2:	90                   	nop
   216f3:	90                   	nop
   216f4:	90                   	nop
   216f5:	90                   	nop
   216f6:	90                   	nop
   216f7:	90                   	nop
   216f8:	90                   	nop
   216f9:	90                   	nop
   216fa:	90                   	nop
   216fb:	90                   	nop
   216fc:	90                   	nop
   216fd:	90                   	nop
   216fe:	90                   	nop
   216ff:	90                   	nop
   21700:	8b 5d f4             	mov    -0xc(%ebp),%ebx
   21703:	8b 75 f8             	mov    -0x8(%ebp),%esi
   21706:	8b 7d fc             	mov    -0x4(%ebp),%edi
   21709:	89 ec                	mov    %ebp,%esp
   2170b:	5d                   	pop    %ebp
   2170c:	59                   	pop    %ecx
   2170d:	83 e1 e0             	and    $0xffffffe0,%ecx
   21710:	ff e1                	jmp    *%ecx
   21712:	8d b4 26 00 00 00 00 	lea    0x0(%esi,%eiz,1),%esi
   21719:	8d bc 27 00 00 00 00 	lea    0x0(%edi,%eiz,1),%edi
   21720:	8b 55 10             	mov    0x10(%ebp),%edx
   21723:	8b 48 04             	mov    0x4(%eax),%ecx
   21726:	8b 75 14             	mov    0x14(%ebp),%esi
   21729:	89 94 b8 88 00 00 00 	mov    %edx,0x88(%eax,%edi,4)
   21730:	ba 01 00 00 00       	mov    $0x1,%edx
   21735:	d3 e2                	shl    %cl,%edx
   21737:	89 cf                	mov    %ecx,%edi
   21739:	09 90 88 01 00 00    	or     %edx,0x188(%eax)
   2173f:	90                   	nop
   21740:	83 fb 02             	cmp    $0x2,%ebx
   21743:	89 b4 88 08 01 00 00 	mov    %esi,0x108(%eax,%ecx,4)
   2174a:	0f 85 70 ff ff ff    	jne    216c0 <__register_exitproc+0x80>
   21750:	09 90 8c 01 00 00    	or     %edx,0x18c(%eax)
   21756:	e9 65 ff ff ff       	jmp    216c0 <__register_exitproc+0x80>
   2175b:	90                   	nop
   2175c:	8d 74 26 00          	lea    0x0(%esi,%eiz,1),%esi
   21760:	8d 86 4c 01 00 00    	lea    0x14c(%esi),%eax
   21766:	89 86 48 01 00 00    	mov    %eax,0x148(%esi)
   2176c:	e9 0f ff ff ff       	jmp    21680 <__register_exitproc+0x40>
   21771:	eb 0d                	jmp    21780 <__register_exitproc+0x140>
   21773:	90                   	nop
   21774:	90                   	nop
   21775:	90                   	nop
   21776:	90                   	nop
   21777:	90                   	nop
   21778:	90                   	nop
   21779:	90                   	nop
   2177a:	90                   	nop
   2177b:	90                   	nop
   2177c:	90                   	nop
   2177d:	90                   	nop
   2177e:	90                   	nop
   2177f:	90                   	nop
   21780:	b8 e0 76 02 00       	mov    $0x276e0,%eax
   21785:	85 c0                	test   %eax,%eax
   21787:	75 37                	jne    217c0 <__register_exitproc+0x180>
   21789:	eb 15                	jmp    217a0 <__register_exitproc+0x160>
   2178b:	90                   	nop
   2178c:	90                   	nop
   2178d:	90                   	nop
   2178e:	90                   	nop
   2178f:	90                   	nop
   21790:	90                   	nop
   21791:	90                   	nop
   21792:	90                   	nop
   21793:	90                   	nop
   21794:	90                   	nop
   21795:	90                   	nop
   21796:	90                   	nop
   21797:	90                   	nop
   21798:	90                   	nop
   21799:	90                   	nop
   2179a:	90                   	nop
   2179b:	90                   	nop
   2179c:	90                   	nop
   2179d:	90                   	nop
   2179e:	90                   	nop
   2179f:	90                   	nop
   217a0:	b8 ff ff ff ff       	mov    $0xffffffff,%eax
   217a5:	e9 56 ff ff ff       	jmp    21700 <__register_exitproc+0xc0>
   217aa:	eb 14                	jmp    217c0 <__register_exitproc+0x180>
   217ac:	90                   	nop
   217ad:	90                   	nop
   217ae:	90                   	nop
   217af:	90                   	nop
   217b0:	90                   	nop
   217b1:	90                   	nop
   217b2:	90                   	nop
   217b3:	90                   	nop
   217b4:	90                   	nop
   217b5:	90                   	nop
   217b6:	90                   	nop
   217b7:	90                   	nop
   217b8:	90                   	nop
   217b9:	90                   	nop
   217ba:	90                   	nop
   217bb:	90                   	nop
   217bc:	90                   	nop
   217bd:	90                   	nop
   217be:	90                   	nop
   217bf:	90                   	nop
   217c0:	c7 04 24 90 01 00 00 	movl   $0x190,(%esp)
   217c7:	eb 12                	jmp    217db <__register_exitproc+0x19b>
   217c9:	90                   	nop
   217ca:	90                   	nop
   217cb:	90                   	nop
   217cc:	90                   	nop
   217cd:	90                   	nop
   217ce:	90                   	nop
   217cf:	90                   	nop
   217d0:	90                   	nop
   217d1:	90                   	nop
   217d2:	90                   	nop
   217d3:	90                   	nop
   217d4:	90                   	nop
   217d5:	90                   	nop
   217d6:	90                   	nop
   217d7:	90                   	nop
   217d8:	90                   	nop
   217d9:	90                   	nop
   217da:	90                   	nop
   217db:	e8 00 5f 00 00       	call   276e0 <malloc>
   217e0:	85 c0                	test   %eax,%eax
   217e2:	74 3c                	je     21820 <__register_exitproc+0x1e0>
   217e4:	8b 96 48 01 00 00    	mov    0x148(%esi),%edx
   217ea:	31 ff                	xor    %edi,%edi
   217ec:	c7 40 04 00 00 00 00 	movl   $0x0,0x4(%eax)
   217f3:	c7 80 88 01 00 00 00 	movl   $0x0,0x188(%eax)
   217fa:	00 00 00 
   217fd:	8d 76 00             	lea    0x0(%esi),%esi
   21800:	c7 80 8c 01 00 00 00 	movl   $0x0,0x18c(%eax)
   21807:	00 00 00 
   2180a:	89 10                	mov    %edx,(%eax)
   2180c:	89 86 48 01 00 00    	mov    %eax,0x148(%esi)
   21812:	e9 89 fe ff ff       	jmp    216a0 <__register_exitproc+0x60>
   21817:	89 f6                	mov    %esi,%esi
   21819:	8d bc 27 00 00 00 00 	lea    0x0(%edi,%eiz,1),%edi
   21820:	c7 04 24 90 20 03 10 	movl   $0x10032090,(%esp)
   21827:	eb 12                	jmp    2183b <__register_exitproc+0x1fb>
   21829:	90                   	nop
   2182a:	90                   	nop
   2182b:	90                   	nop
   2182c:	90                   	nop
   2182d:	90                   	nop
   2182e:	90                   	nop
   2182f:	90                   	nop
   21830:	90                   	nop
   21831:	90                   	nop
   21832:	90                   	nop
   21833:	90                   	nop
   21834:	90                   	nop
   21835:	90                   	nop
   21836:	90                   	nop
   21837:	90                   	nop
   21838:	90                   	nop
   21839:	90                   	nop
   2183a:	90                   	nop
   2183b:	e8 c0 2c 00 00       	call   24500 <__local_lock_release_recursive>
   21840:	e9 5b ff ff ff       	jmp    217a0 <__register_exitproc+0x160>
   21845:	90                   	nop
   21846:	90                   	nop
   21847:	90                   	nop
   21848:	90                   	nop
   21849:	90                   	nop
   2184a:	90                   	nop
   2184b:	90                   	nop
   2184c:	90                   	nop
   2184d:	90                   	nop
   2184e:	90                   	nop
   2184f:	90                   	nop
   21850:	90                   	nop
   21851:	90                   	nop
   21852:	90                   	nop
   21853:	90                   	nop
   21854:	90                   	nop
   21855:	90                   	nop
   21856:	90                   	nop
   21857:	90                   	nop
   21858:	90                   	nop
   21859:	90                   	nop
   2185a:	90                   	nop
   2185b:	90                   	nop
   2185c:	90                   	nop
   2185d:	90                   	nop
   2185e:	90                   	nop
   2185f:	90                   	nop

00021860 <__call_exitprocs>:
   21860:	55                   	push   %ebp
   21861:	89 e5                	mov    %esp,%ebp
   21863:	57                   	push   %edi
   21864:	56                   	push   %esi
   21865:	53                   	push   %ebx
   21866:	83 ec 3c             	sub    $0x3c,%esp
   21869:	8b 45 08             	mov    0x8(%ebp),%eax
   2186c:	8b 7d 0c             	mov    0xc(%ebp),%edi
   2186f:	89 45 d8             	mov    %eax,-0x28(%ebp)
   21872:	c7 04 24 90 20 03 10 	movl   $0x10032090,(%esp)
   21879:	66 90                	xchg   %ax,%ax
   2187b:	e8 00 2c 00 00       	call   24480 <__local_lock_acquire_recursive>
   21880:	8b 15 30 02 02 10    	mov    0x10020230,%edx
   21886:	81 c2 48 01 00 00    	add    $0x148,%edx
   2188c:	89 55 e0             	mov    %edx,-0x20(%ebp)
   2188f:	eb 0f                	jmp    218a0 <__call_exitprocs+0x40>
   21891:	90                   	nop
   21892:	90                   	nop
   21893:	90                   	nop
   21894:	90                   	nop
   21895:	90                   	nop
   21896:	90                   	nop
   21897:	90                   	nop
   21898:	90                   	nop
   21899:	90                   	nop
   2189a:	90                   	nop
   2189b:	90                   	nop
   2189c:	90                   	nop
   2189d:	90                   	nop
   2189e:	90                   	nop
   2189f:	90                   	nop
   218a0:	a1 30 02 02 10       	mov    0x10020230,%eax
   218a5:	8b b0 48 01 00 00    	mov    0x148(%eax),%esi
   218ab:	85 f6                	test   %esi,%esi
   218ad:	0f 84 8d 00 00 00    	je     21940 <__call_exitprocs+0xe0>
   218b3:	8b 55 e0             	mov    -0x20(%ebp),%edx
   218b6:	89 55 dc             	mov    %edx,-0x24(%ebp)
   218b9:	8d b4 26 00 00 00 00 	lea    0x0(%esi,%eiz,1),%esi
   218c0:	8b 46 04             	mov    0x4(%esi),%eax
   218c3:	89 c1                	mov    %eax,%ecx
   218c5:	83 e9 01             	sub    $0x1,%ecx
   218c8:	78 56                	js     21920 <__call_exitprocs+0xc0>
   218ca:	8d 9c 86 84 00 00 00 	lea    0x84(%esi,%eax,4),%ebx
   218d1:	eb 0d                	jmp    218e0 <__call_exitprocs+0x80>
   218d3:	90                   	nop
   218d4:	90                   	nop
   218d5:	90                   	nop
   218d6:	90                   	nop
   218d7:	90                   	nop
   218d8:	90                   	nop
   218d9:	90                   	nop
   218da:	90                   	nop
   218db:	90                   	nop
   218dc:	90                   	nop
   218dd:	90                   	nop
   218de:	90                   	nop
   218df:	90                   	nop
   218e0:	85 ff                	test   %edi,%edi
   218e2:	74 7c                	je     21960 <__call_exitprocs+0x100>
   218e4:	39 bb 80 00 00 00    	cmp    %edi,0x80(%ebx)
   218ea:	74 74                	je     21960 <__call_exitprocs+0x100>
   218ec:	eb 12                	jmp    21900 <__call_exitprocs+0xa0>
   218ee:	90                   	nop
   218ef:	90                   	nop
   218f0:	90                   	nop
   218f1:	90                   	nop
   218f2:	90                   	nop
   218f3:	90                   	nop
   218f4:	90                   	nop
   218f5:	90                   	nop
   218f6:	90                   	nop
   218f7:	90                   	nop
   218f8:	90                   	nop
   218f9:	90                   	nop
   218fa:	90                   	nop
   218fb:	90                   	nop
   218fc:	90                   	nop
   218fd:	90                   	nop
   218fe:	90                   	nop
   218ff:	90                   	nop
   21900:	83 eb 04             	sub    $0x4,%ebx
   21903:	83 e9 01             	sub    $0x1,%ecx
   21906:	79 d8                	jns    218e0 <__call_exitprocs+0x80>
   21908:	eb 16                	jmp    21920 <__call_exitprocs+0xc0>
   2190a:	90                   	nop
   2190b:	90                   	nop
   2190c:	90                   	nop
   2190d:	90                   	nop
   2190e:	90                   	nop
   2190f:	90                   	nop
   21910:	90                   	nop
   21911:	90                   	nop
   21912:	90                   	nop
   21913:	90                   	nop
   21914:	90                   	nop
   21915:	90                   	nop
   21916:	90                   	nop
   21917:	90                   	nop
   21918:	90                   	nop
   21919:	90                   	nop
   2191a:	90                   	nop
   2191b:	90                   	nop
   2191c:	90                   	nop
   2191d:	90                   	nop
   2191e:	90                   	nop
   2191f:	90                   	nop
   21920:	b8 20 64 02 00       	mov    $0x26420,%eax
   21925:	85 c0                	test   %eax,%eax
   21927:	0f 85 93 01 00 00    	jne    21ac0 <__call_exitprocs+0x260>
   2192d:	eb 11                	jmp    21940 <__call_exitprocs+0xe0>
   2192f:	90                   	nop
   21930:	90                   	nop
   21931:	90                   	nop
   21932:	90                   	nop
   21933:	90                   	nop
   21934:	90                   	nop
   21935:	90                   	nop
   21936:	90                   	nop
   21937:	90                   	nop
   21938:	90                   	nop
   21939:	90                   	nop
   2193a:	90                   	nop
   2193b:	90                   	nop
   2193c:	90                   	nop
   2193d:	90                   	nop
   2193e:	90                   	nop
   2193f:	90                   	nop
   21940:	c7 45 08 90 20 03 10 	movl   $0x10032090,0x8(%ebp)
   21947:	83 c4 3c             	add    $0x3c,%esp
   2194a:	5b                   	pop    %ebx
   2194b:	5e                   	pop    %esi
   2194c:	5f                   	pop    %edi
   2194d:	5d                   	pop    %ebp
   2194e:	e9 ad 2b 00 00       	jmp    24500 <__local_lock_release_recursive>
   21953:	8d b6 00 00 00 00    	lea    0x0(%esi),%esi
   21959:	8d bc 27 00 00 00 00 	lea    0x0(%edi,%eiz,1),%edi
   21960:	8b 56 04             	mov    0x4(%esi),%edx
   21963:	8b 43 80             	mov    -0x80(%ebx),%eax
   21966:	83 ea 01             	sub    $0x1,%edx
   21969:	39 ca                	cmp    %ecx,%edx
   2196b:	0f 84 ef 00 00 00    	je     21a60 <__call_exitprocs+0x200>
   21971:	c7 43 80 00 00 00 00 	movl   $0x0,-0x80(%ebx)
   21978:	90                   	nop
   21979:	8d b4 26 00 00 00 00 	lea    0x0(%esi,%eiz,1),%esi
   21980:	85 c0                	test   %eax,%eax
   21982:	0f 84 78 ff ff ff    	je     21900 <__call_exitprocs+0xa0>
   21988:	8b 56 04             	mov    0x4(%esi),%edx
   2198b:	89 55 e4             	mov    %edx,-0x1c(%ebp)
   2198e:	ba 01 00 00 00       	mov    $0x1,%edx
   21993:	d3 e2                	shl    %cl,%edx
   21995:	85 96 88 01 00 00    	test   %edx,0x188(%esi)
   2199b:	90                   	nop
   2199c:	8d 74 26 00          	lea    0x0(%esi,%eiz,1),%esi
   219a0:	74 7e                	je     21a20 <__call_exitprocs+0x1c0>
   219a2:	85 96 8c 01 00 00    	test   %edx,0x18c(%esi)
   219a8:	0f 85 d2 00 00 00    	jne    21a80 <__call_exitprocs+0x220>
   219ae:	8b 13                	mov    (%ebx),%edx
   219b0:	89 54 24 04          	mov    %edx,0x4(%esp)
   219b4:	8b 55 d8             	mov    -0x28(%ebp),%edx
   219b7:	89 14 24             	mov    %edx,(%esp)
   219ba:	89 4d d4             	mov    %ecx,-0x2c(%ebp)
   219bd:	8d 76 00             	lea    0x0(%esi),%esi
   219c0:	eb 19                	jmp    219db <__call_exitprocs+0x17b>
   219c2:	90                   	nop
   219c3:	90                   	nop
   219c4:	90                   	nop
   219c5:	90                   	nop
   219c6:	90                   	nop
   219c7:	90                   	nop
   219c8:	90                   	nop
   219c9:	90                   	nop
   219ca:	90                   	nop
   219cb:	90                   	nop
   219cc:	90                   	nop
   219cd:	90                   	nop
   219ce:	90                   	nop
   219cf:	90                   	nop
   219d0:	90                   	nop
   219d1:	90                   	nop
   219d2:	90                   	nop
   219d3:	90                   	nop
   219d4:	90                   	nop
   219d5:	90                   	nop
   219d6:	90                   	nop
   219d7:	90                   	nop
   219d8:	90                   	nop
   219d9:	90                   	nop
   219da:	90                   	nop
   219db:	83 e0 e0             	and    $0xffffffe0,%eax
   219de:	ff d0                	call   *%eax
   219e0:	8b 4d d4             	mov    -0x2c(%ebp),%ecx
   219e3:	eb 1b                	jmp    21a00 <__call_exitprocs+0x1a0>
   219e5:	90                   	nop
   219e6:	90                   	nop
   219e7:	90                   	nop
   219e8:	90                   	nop
   219e9:	90                   	nop
   219ea:	90                   	nop
   219eb:	90                   	nop
   219ec:	90                   	nop
   219ed:	90                   	nop
   219ee:	90                   	nop
   219ef:	90                   	nop
   219f0:	90                   	nop
   219f1:	90                   	nop
   219f2:	90                   	nop
   219f3:	90                   	nop
   219f4:	90                   	nop
   219f5:	90                   	nop
   219f6:	90                   	nop
   219f7:	90                   	nop
   219f8:	90                   	nop
   219f9:	90                   	nop
   219fa:	90                   	nop
   219fb:	90                   	nop
   219fc:	90                   	nop
   219fd:	90                   	nop
   219fe:	90                   	nop
   219ff:	90                   	nop
   21a00:	8b 45 e4             	mov    -0x1c(%ebp),%eax
   21a03:	39 46 04             	cmp    %eax,0x4(%esi)
   21a06:	0f 85 94 fe ff ff    	jne    218a0 <__call_exitprocs+0x40>
   21a0c:	8b 55 dc             	mov    -0x24(%ebp),%edx
   21a0f:	39 32                	cmp    %esi,(%edx)
   21a11:	0f 85 89 fe ff ff    	jne    218a0 <__call_exitprocs+0x40>
   21a17:	e9 e4 fe ff ff       	jmp    21900 <__call_exitprocs+0xa0>
   21a1c:	8d 74 26 00          	lea    0x0(%esi,%eiz,1),%esi
   21a20:	89 4d d4             	mov    %ecx,-0x2c(%ebp)
   21a23:	eb 16                	jmp    21a3b <__call_exitprocs+0x1db>
   21a25:	90                   	nop
   21a26:	90                   	nop
   21a27:	90                   	nop
   21a28:	90                   	nop
   21a29:	90                   	nop
   21a2a:	90                   	nop
   21a2b:	90                   	nop
   21a2c:	90                   	nop
   21a2d:	90                   	nop
   21a2e:	90                   	nop
   21a2f:	90                   	nop
   21a30:	90                   	nop
   21a31:	90                   	nop
   21a32:	90                   	nop
   21a33:	90                   	nop
   21a34:	90                   	nop
   21a35:	90                   	nop
   21a36:	90                   	nop
   21a37:	90                   	nop
   21a38:	90                   	nop
   21a39:	90                   	nop
   21a3a:	90                   	nop
   21a3b:	83 e0 e0             	and    $0xffffffe0,%eax
   21a3e:	ff d0                	call   *%eax
   21a40:	8b 4d d4             	mov    -0x2c(%ebp),%ecx
   21a43:	eb bb                	jmp    21a00 <__call_exitprocs+0x1a0>
   21a45:	eb 19                	jmp    21a60 <__call_exitprocs+0x200>
   21a47:	90                   	nop
   21a48:	90                   	nop
   21a49:	90                   	nop
   21a4a:	90                   	nop
   21a4b:	90                   	nop
   21a4c:	90                   	nop
   21a4d:	90                   	nop
   21a4e:	90                   	nop
   21a4f:	90                   	nop
   21a50:	90                   	nop
   21a51:	90                   	nop
   21a52:	90                   	nop
   21a53:	90                   	nop
   21a54:	90                   	nop
   21a55:	90                   	nop
   21a56:	90                   	nop
   21a57:	90                   	nop
   21a58:	90                   	nop
   21a59:	90                   	nop
   21a5a:	90                   	nop
   21a5b:	90                   	nop
   21a5c:	90                   	nop
   21a5d:	90                   	nop
   21a5e:	90                   	nop
   21a5f:	90                   	nop
   21a60:	89 4e 04             	mov    %ecx,0x4(%esi)
   21a63:	e9 18 ff ff ff       	jmp    21980 <__call_exitprocs+0x120>
   21a68:	eb 16                	jmp    21a80 <__call_exitprocs+0x220>
   21a6a:	90                   	nop
   21a6b:	90                   	nop
   21a6c:	90                   	nop
   21a6d:	90                   	nop
   21a6e:	90                   	nop
   21a6f:	90                   	nop
   21a70:	90                   	nop
   21a71:	90                   	nop
   21a72:	90                   	nop
   21a73:	90                   	nop
   21a74:	90                   	nop
   21a75:	90                   	nop
   21a76:	90                   	nop
   21a77:	90                   	nop
   21a78:	90                   	nop
   21a79:	90                   	nop
   21a7a:	90                   	nop
   21a7b:	90                   	nop
   21a7c:	90                   	nop
   21a7d:	90                   	nop
   21a7e:	90                   	nop
   21a7f:	90                   	nop
   21a80:	8b 13                	mov    (%ebx),%edx
   21a82:	89 14 24             	mov    %edx,(%esp)
   21a85:	89 4d d4             	mov    %ecx,-0x2c(%ebp)
   21a88:	eb 11                	jmp    21a9b <__call_exitprocs+0x23b>
   21a8a:	90                   	nop
   21a8b:	90                   	nop
   21a8c:	90                   	nop
   21a8d:	90                   	nop
   21a8e:	90                   	nop
   21a8f:	90                   	nop
   21a90:	90                   	nop
   21a91:	90                   	nop
   21a92:	90                   	nop
   21a93:	90                   	nop
   21a94:	90                   	nop
   21a95:	90                   	nop
   21a96:	90                   	nop
   21a97:	90                   	nop
   21a98:	90                   	nop
   21a99:	90                   	nop
   21a9a:	90                   	nop
   21a9b:	83 e0 e0             	and    $0xffffffe0,%eax
   21a9e:	ff d0                	call   *%eax
   21aa0:	8b 4d d4             	mov    -0x2c(%ebp),%ecx
   21aa3:	e9 58 ff ff ff       	jmp    21a00 <__call_exitprocs+0x1a0>
   21aa8:	eb 16                	jmp    21ac0 <__call_exitprocs+0x260>
   21aaa:	90                   	nop
   21aab:	90                   	nop
   21aac:	90                   	nop
   21aad:	90                   	nop
   21aae:	90                   	nop
   21aaf:	90                   	nop
   21ab0:	90                   	nop
   21ab1:	90                   	nop
   21ab2:	90                   	nop
   21ab3:	90                   	nop
   21ab4:	90                   	nop
   21ab5:	90                   	nop
   21ab6:	90                   	nop
   21ab7:	90                   	nop
   21ab8:	90                   	nop
   21ab9:	90                   	nop
   21aba:	90                   	nop
   21abb:	90                   	nop
   21abc:	90                   	nop
   21abd:	90                   	nop
   21abe:	90                   	nop
   21abf:	90                   	nop
   21ac0:	83 7e 04 00          	cmpl   $0x0,0x4(%esi)
   21ac4:	75 5a                	jne    21b20 <__call_exitprocs+0x2c0>
   21ac6:	8b 16                	mov    (%esi),%edx
   21ac8:	31 c0                	xor    %eax,%eax
   21aca:	85 d2                	test   %edx,%edx
   21acc:	74 72                	je     21b40 <__call_exitprocs+0x2e0>
   21ace:	8b 45 dc             	mov    -0x24(%ebp),%eax
   21ad1:	89 10                	mov    %edx,(%eax)
   21ad3:	89 34 24             	mov    %esi,(%esp)
   21ad6:	90                   	nop
   21ad7:	8d 74 26 00          	lea    0x0(%esi,%eiz,1),%esi
   21adb:	e8 40 49 00 00       	call   26420 <free>
   21ae0:	8b 55 dc             	mov    -0x24(%ebp),%edx
   21ae3:	8b 32                	mov    (%edx),%esi
   21ae5:	eb 19                	jmp    21b00 <__call_exitprocs+0x2a0>
   21ae7:	90                   	nop
   21ae8:	90                   	nop
   21ae9:	90                   	nop
   21aea:	90                   	nop
   21aeb:	90                   	nop
   21aec:	90                   	nop
   21aed:	90                   	nop
   21aee:	90                   	nop
   21aef:	90                   	nop
   21af0:	90                   	nop
   21af1:	90                   	nop
   21af2:	90                   	nop
   21af3:	90                   	nop
   21af4:	90                   	nop
   21af5:	90                   	nop
   21af6:	90                   	nop
   21af7:	90                   	nop
   21af8:	90                   	nop
   21af9:	90                   	nop
   21afa:	90                   	nop
   21afb:	90                   	nop
   21afc:	90                   	nop
   21afd:	90                   	nop
   21afe:	90                   	nop
   21aff:	90                   	nop
   21b00:	85 f6                	test   %esi,%esi
   21b02:	0f 85 b8 fd ff ff    	jne    218c0 <__call_exitprocs+0x60>
   21b08:	e9 33 fe ff ff       	jmp    21940 <__call_exitprocs+0xe0>
   21b0d:	eb 11                	jmp    21b20 <__call_exitprocs+0x2c0>
   21b0f:	90                   	nop
   21b10:	90                   	nop
   21b11:	90                   	nop
   21b12:	90                   	nop
   21b13:	90                   	nop
   21b14:	90                   	nop
   21b15:	90                   	nop
   21b16:	90                   	nop
   21b17:	90                   	nop
   21b18:	90                   	nop
   21b19:	90                   	nop
   21b1a:	90                   	nop
   21b1b:	90                   	nop
   21b1c:	90                   	nop
   21b1d:	90                   	nop
   21b1e:	90                   	nop
   21b1f:	90                   	nop
   21b20:	8b 06                	mov    (%esi),%eax
   21b22:	eb 1c                	jmp    21b40 <__call_exitprocs+0x2e0>
   21b24:	90                   	nop
   21b25:	90                   	nop
   21b26:	90                   	nop
   21b27:	90                   	nop
   21b28:	90                   	nop
   21b29:	90                   	nop
   21b2a:	90                   	nop
   21b2b:	90                   	nop
   21b2c:	90                   	nop
   21b2d:	90                   	nop
   21b2e:	90                   	nop
   21b2f:	90                   	nop
   21b30:	90                   	nop
   21b31:	90                   	nop
   21b32:	90                   	nop
   21b33:	90                   	nop
   21b34:	90                   	nop
   21b35:	90                   	nop
   21b36:	90                   	nop
   21b37:	90                   	nop
   21b38:	90                   	nop
   21b39:	90                   	nop
   21b3a:	90                   	nop
   21b3b:	90                   	nop
   21b3c:	90                   	nop
   21b3d:	90                   	nop
   21b3e:	90                   	nop
   21b3f:	90                   	nop
   21b40:	89 75 dc             	mov    %esi,-0x24(%ebp)
   21b43:	89 c6                	mov    %eax,%esi
   21b45:	eb b9                	jmp    21b00 <__call_exitprocs+0x2a0>
   21b47:	90                   	nop
   21b48:	90                   	nop
   21b49:	90                   	nop
   21b4a:	90                   	nop
   21b4b:	90                   	nop
   21b4c:	90                   	nop
   21b4d:	90                   	nop
   21b4e:	90                   	nop
   21b4f:	90                   	nop
   21b50:	90                   	nop
   21b51:	90                   	nop
   21b52:	90                   	nop
   21b53:	90                   	nop
   21b54:	90                   	nop
   21b55:	90                   	nop
   21b56:	90                   	nop
   21b57:	90                   	nop
   21b58:	90                   	nop
   21b59:	90                   	nop
   21b5a:	90                   	nop
   21b5b:	90                   	nop
   21b5c:	90                   	nop
   21b5d:	90                   	nop
   21b5e:	90                   	nop
   21b5f:	90                   	nop

00021b60 <execve>:
   21b60:	55                   	push   %ebp
   21b61:	89 e5                	mov    %esp,%ebp
   21b63:	83 ec 08             	sub    $0x8,%esp
   21b66:	89 ec                	mov    %ebp,%esp
   21b68:	5d                   	pop    %ebp
   21b69:	e9 b2 2c 00 00       	jmp    24820 <_execve>
   21b6e:	90                   	nop
   21b6f:	90                   	nop
   21b70:	90                   	nop
   21b71:	90                   	nop
   21b72:	90                   	nop
   21b73:	90                   	nop
   21b74:	90                   	nop
   21b75:	90                   	nop
   21b76:	90                   	nop
   21b77:	90                   	nop
   21b78:	90                   	nop
   21b79:	90                   	nop
   21b7a:	90                   	nop
   21b7b:	90                   	nop
   21b7c:	90                   	nop
   21b7d:	90                   	nop
   21b7e:	90                   	nop
   21b7f:	90                   	nop

00021b80 <__sfvwrite_r>:
   21b80:	55                   	push   %ebp
   21b81:	89 e5                	mov    %esp,%ebp
   21b83:	57                   	push   %edi
   21b84:	56                   	push   %esi
   21b85:	53                   	push   %ebx
   21b86:	83 ec 4c             	sub    $0x4c,%esp
   21b89:	8b 45 10             	mov    0x10(%ebp),%eax
   21b8c:	8b 5d 0c             	mov    0xc(%ebp),%ebx
   21b8f:	8b 70 08             	mov    0x8(%eax),%esi
   21b92:	85 f6                	test   %esi,%esi
   21b94:	0f 84 a6 00 00 00    	je     21c40 <__sfvwrite_r+0xc0>
   21b9a:	0f b7 43 0c          	movzwl 0xc(%ebx),%eax
   21b9e:	66 90                	xchg   %ax,%ax
   21ba0:	0f bf d0             	movswl %ax,%edx
   21ba3:	f6 c2 08             	test   $0x8,%dl
   21ba6:	0f 84 54 07 00 00    	je     22300 <__sfvwrite_r+0x780>
   21bac:	8b 4b 10             	mov    0x10(%ebx),%ecx
   21baf:	85 c9                	test   %ecx,%ecx
   21bb1:	0f 84 49 07 00 00    	je     22300 <__sfvwrite_r+0x780>
   21bb7:	89 f6                	mov    %esi,%esi
   21bb9:	8d bc 27 00 00 00 00 	lea    0x0(%edi,%eiz,1),%edi
   21bc0:	8b 4d 10             	mov    0x10(%ebp),%ecx
   21bc3:	f6 c2 02             	test   $0x2,%dl
   21bc6:	8b 31                	mov    (%ecx),%esi
   21bc8:	0f 84 b2 00 00 00    	je     21c80 <__sfvwrite_r+0x100>
   21bce:	31 d2                	xor    %edx,%edx
   21bd0:	31 ff                	xor    %edi,%edi
   21bd2:	89 55 e4             	mov    %edx,-0x1c(%ebp)
   21bd5:	8d 74 26 00          	lea    0x0(%esi,%eiz,1),%esi
   21bd9:	8d bc 27 00 00 00 00 	lea    0x0(%edi,%eiz,1),%edi
   21be0:	85 ff                	test   %edi,%edi
   21be2:	0f 84 b8 01 00 00    	je     21da0 <__sfvwrite_r+0x220>
   21be8:	81 ff 00 fc ff 7f    	cmp    $0x7ffffc00,%edi
   21bee:	b8 00 fc ff 7f       	mov    $0x7ffffc00,%eax
   21bf3:	0f 46 c7             	cmovbe %edi,%eax
   21bf6:	89 44 24 0c          	mov    %eax,0xc(%esp)
   21bfa:	8b 55 e4             	mov    -0x1c(%ebp),%edx
   21bfd:	8d 76 00             	lea    0x0(%esi),%esi
   21c00:	89 54 24 08          	mov    %edx,0x8(%esp)
   21c04:	8b 43 1c             	mov    0x1c(%ebx),%eax
   21c07:	89 44 24 04          	mov    %eax,0x4(%esp)
   21c0b:	8b 4d 08             	mov    0x8(%ebp),%ecx
   21c0e:	89 0c 24             	mov    %ecx,(%esp)
   21c11:	8b 43 24             	mov    0x24(%ebx),%eax
   21c14:	8d b4 26 00 00 00 00 	lea    0x0(%esi,%eiz,1),%esi
   21c1b:	83 e0 e0             	and    $0xffffffe0,%eax
   21c1e:	ff d0                	call   *%eax
   21c20:	85 c0                	test   %eax,%eax
   21c22:	0f 8e 18 04 00 00    	jle    22040 <__sfvwrite_r+0x4c0>
   21c28:	8b 55 10             	mov    0x10(%ebp),%edx
   21c2b:	29 c7                	sub    %eax,%edi
   21c2d:	01 45 e4             	add    %eax,-0x1c(%ebp)
   21c30:	8b 4a 08             	mov    0x8(%edx),%ecx
   21c33:	29 c1                	sub    %eax,%ecx
   21c35:	85 c9                	test   %ecx,%ecx
   21c37:	89 4a 08             	mov    %ecx,0x8(%edx)
   21c3a:	75 a4                	jne    21be0 <__sfvwrite_r+0x60>
   21c3c:	8d 74 26 00          	lea    0x0(%esi,%eiz,1),%esi
   21c40:	31 c0                	xor    %eax,%eax
   21c42:	eb 1c                	jmp    21c60 <__sfvwrite_r+0xe0>
   21c44:	90                   	nop
   21c45:	90                   	nop
   21c46:	90                   	nop
   21c47:	90                   	nop
   21c48:	90                   	nop
   21c49:	90                   	nop
   21c4a:	90                   	nop
   21c4b:	90                   	nop
   21c4c:	90                   	nop
   21c4d:	90                   	nop
   21c4e:	90                   	nop
   21c4f:	90                   	nop
   21c50:	90                   	nop
   21c51:	90                   	nop
   21c52:	90                   	nop
   21c53:	90                   	nop
   21c54:	90                   	nop
   21c55:	90                   	nop
   21c56:	90                   	nop
   21c57:	90                   	nop
   21c58:	90                   	nop
   21c59:	90                   	nop
   21c5a:	90                   	nop
   21c5b:	90                   	nop
   21c5c:	90                   	nop
   21c5d:	90                   	nop
   21c5e:	90                   	nop
   21c5f:	90                   	nop
   21c60:	83 c4 4c             	add    $0x4c,%esp
   21c63:	5b                   	pop    %ebx
   21c64:	5e                   	pop    %esi
   21c65:	5f                   	pop    %edi
   21c66:	5d                   	pop    %ebp
   21c67:	59                   	pop    %ecx
   21c68:	83 e1 e0             	and    $0xffffffe0,%ecx
   21c6b:	ff e1                	jmp    *%ecx
   21c6d:	eb 11                	jmp    21c80 <__sfvwrite_r+0x100>
   21c6f:	90                   	nop
   21c70:	90                   	nop
   21c71:	90                   	nop
   21c72:	90                   	nop
   21c73:	90                   	nop
   21c74:	90                   	nop
   21c75:	90                   	nop
   21c76:	90                   	nop
   21c77:	90                   	nop
   21c78:	90                   	nop
   21c79:	90                   	nop
   21c7a:	90                   	nop
   21c7b:	90                   	nop
   21c7c:	90                   	nop
   21c7d:	90                   	nop
   21c7e:	90                   	nop
   21c7f:	90                   	nop
   21c80:	31 ff                	xor    %edi,%edi
   21c82:	83 e2 01             	and    $0x1,%edx
   21c85:	c7 45 e4 00 00 00 00 	movl   $0x0,-0x1c(%ebp)
   21c8c:	0f 85 ce 03 00 00    	jne    22060 <__sfvwrite_r+0x4e0>
   21c92:	8d b4 26 00 00 00 00 	lea    0x0(%esi,%eiz,1),%esi
   21c99:	8d bc 27 00 00 00 00 	lea    0x0(%edi,%eiz,1),%edi
   21ca0:	85 ff                	test   %edi,%edi
   21ca2:	0f 84 d8 00 00 00    	je     21d80 <__sfvwrite_r+0x200>
   21ca8:	eb 16                	jmp    21cc0 <__sfvwrite_r+0x140>
   21caa:	90                   	nop
   21cab:	90                   	nop
   21cac:	90                   	nop
   21cad:	90                   	nop
   21cae:	90                   	nop
   21caf:	90                   	nop
   21cb0:	90                   	nop
   21cb1:	90                   	nop
   21cb2:	90                   	nop
   21cb3:	90                   	nop
   21cb4:	90                   	nop
   21cb5:	90                   	nop
   21cb6:	90                   	nop
   21cb7:	90                   	nop
   21cb8:	90                   	nop
   21cb9:	90                   	nop
   21cba:	90                   	nop
   21cbb:	90                   	nop
   21cbc:	90                   	nop
   21cbd:	90                   	nop
   21cbe:	90                   	nop
   21cbf:	90                   	nop
   21cc0:	98                   	cwtl   
   21cc1:	8b 4b 08             	mov    0x8(%ebx),%ecx
   21cc4:	f6 c4 02             	test   $0x2,%ah
   21cc7:	0f 84 f3 00 00 00    	je     21dc0 <__sfvwrite_r+0x240>
   21ccd:	39 cf                	cmp    %ecx,%edi
   21ccf:	89 4d e0             	mov    %ecx,-0x20(%ebp)
   21cd2:	0f 83 88 01 00 00    	jae    21e60 <__sfvwrite_r+0x2e0>
   21cd8:	8b 03                	mov    (%ebx),%eax
   21cda:	89 f9                	mov    %edi,%ecx
   21cdc:	89 fa                	mov    %edi,%edx
   21cde:	66 90                	xchg   %ax,%ax
   21ce0:	89 7d e0             	mov    %edi,-0x20(%ebp)
   21ce3:	89 45 dc             	mov    %eax,-0x24(%ebp)
   21ce6:	eb 18                	jmp    21d00 <__sfvwrite_r+0x180>
   21ce8:	90                   	nop
   21ce9:	90                   	nop
   21cea:	90                   	nop
   21ceb:	90                   	nop
   21cec:	90                   	nop
   21ced:	90                   	nop
   21cee:	90                   	nop
   21cef:	90                   	nop
   21cf0:	90                   	nop
   21cf1:	90                   	nop
   21cf2:	90                   	nop
   21cf3:	90                   	nop
   21cf4:	90                   	nop
   21cf5:	90                   	nop
   21cf6:	90                   	nop
   21cf7:	90                   	nop
   21cf8:	90                   	nop
   21cf9:	90                   	nop
   21cfa:	90                   	nop
   21cfb:	90                   	nop
   21cfc:	90                   	nop
   21cfd:	90                   	nop
   21cfe:	90                   	nop
   21cff:	90                   	nop
   21d00:	8b 45 e0             	mov    -0x20(%ebp),%eax
   21d03:	89 44 24 08          	mov    %eax,0x8(%esp)
   21d07:	8b 45 e4             	mov    -0x1c(%ebp),%eax
   21d0a:	89 44 24 04          	mov    %eax,0x4(%esp)
   21d0e:	8b 45 dc             	mov    -0x24(%ebp),%eax
   21d11:	89 04 24             	mov    %eax,(%esp)
   21d14:	89 55 d0             	mov    %edx,-0x30(%ebp)
   21d17:	89 4d d4             	mov    %ecx,-0x2c(%ebp)
   21d1a:	90                   	nop
   21d1b:	e8 e0 06 00 00       	call   22400 <memmove>
   21d20:	8b 4d d4             	mov    -0x2c(%ebp),%ecx
   21d23:	29 4b 08             	sub    %ecx,0x8(%ebx)
   21d26:	8b 4d e0             	mov    -0x20(%ebp),%ecx
   21d29:	01 0b                	add    %ecx,(%ebx)
   21d2b:	8b 55 d0             	mov    -0x30(%ebp),%edx
   21d2e:	eb 10                	jmp    21d40 <__sfvwrite_r+0x1c0>
   21d30:	90                   	nop
   21d31:	90                   	nop
   21d32:	90                   	nop
   21d33:	90                   	nop
   21d34:	90                   	nop
   21d35:	90                   	nop
   21d36:	90                   	nop
   21d37:	90                   	nop
   21d38:	90                   	nop
   21d39:	90                   	nop
   21d3a:	90                   	nop
   21d3b:	90                   	nop
   21d3c:	90                   	nop
   21d3d:	90                   	nop
   21d3e:	90                   	nop
   21d3f:	90                   	nop
   21d40:	8b 4d 10             	mov    0x10(%ebp),%ecx
   21d43:	29 d7                	sub    %edx,%edi
   21d45:	01 55 e4             	add    %edx,-0x1c(%ebp)
   21d48:	8b 41 08             	mov    0x8(%ecx),%eax
   21d4b:	29 d0                	sub    %edx,%eax
   21d4d:	85 c0                	test   %eax,%eax
   21d4f:	89 41 08             	mov    %eax,0x8(%ecx)
   21d52:	0f 84 e8 fe ff ff    	je     21c40 <__sfvwrite_r+0xc0>
   21d58:	85 ff                	test   %edi,%edi
   21d5a:	0f b7 43 0c          	movzwl 0xc(%ebx),%eax
   21d5e:	66 90                	xchg   %ax,%ax
   21d60:	0f 85 5a ff ff ff    	jne    21cc0 <__sfvwrite_r+0x140>
   21d66:	eb 18                	jmp    21d80 <__sfvwrite_r+0x200>
   21d68:	90                   	nop
   21d69:	90                   	nop
   21d6a:	90                   	nop
   21d6b:	90                   	nop
   21d6c:	90                   	nop
   21d6d:	90                   	nop
   21d6e:	90                   	nop
   21d6f:	90                   	nop
   21d70:	90                   	nop
   21d71:	90                   	nop
   21d72:	90                   	nop
   21d73:	90                   	nop
   21d74:	90                   	nop
   21d75:	90                   	nop
   21d76:	90                   	nop
   21d77:	90                   	nop
   21d78:	90                   	nop
   21d79:	90                   	nop
   21d7a:	90                   	nop
   21d7b:	90                   	nop
   21d7c:	90                   	nop
   21d7d:	90                   	nop
   21d7e:	90                   	nop
   21d7f:	90                   	nop
   21d80:	8b 0e                	mov    (%esi),%ecx
   21d82:	8b 7e 04             	mov    0x4(%esi),%edi
   21d85:	83 c6 08             	add    $0x8,%esi
   21d88:	89 4d e4             	mov    %ecx,-0x1c(%ebp)
   21d8b:	e9 10 ff ff ff       	jmp    21ca0 <__sfvwrite_r+0x120>
   21d90:	eb 0e                	jmp    21da0 <__sfvwrite_r+0x220>
   21d92:	90                   	nop
   21d93:	90                   	nop
   21d94:	90                   	nop
   21d95:	90                   	nop
   21d96:	90                   	nop
   21d97:	90                   	nop
   21d98:	90                   	nop
   21d99:	90                   	nop
   21d9a:	90                   	nop
   21d9b:	90                   	nop
   21d9c:	90                   	nop
   21d9d:	90                   	nop
   21d9e:	90                   	nop
   21d9f:	90                   	nop
   21da0:	8b 06                	mov    (%esi),%eax
   21da2:	8b 7e 04             	mov    0x4(%esi),%edi
   21da5:	83 c6 08             	add    $0x8,%esi
   21da8:	89 45 e4             	mov    %eax,-0x1c(%ebp)
   21dab:	e9 30 fe ff ff       	jmp    21be0 <__sfvwrite_r+0x60>
   21db0:	eb 0e                	jmp    21dc0 <__sfvwrite_r+0x240>
   21db2:	90                   	nop
   21db3:	90                   	nop
   21db4:	90                   	nop
   21db5:	90                   	nop
   21db6:	90                   	nop
   21db7:	90                   	nop
   21db8:	90                   	nop
   21db9:	90                   	nop
   21dba:	90                   	nop
   21dbb:	90                   	nop
   21dbc:	90                   	nop
   21dbd:	90                   	nop
   21dbe:	90                   	nop
   21dbf:	90                   	nop
   21dc0:	8b 03                	mov    (%ebx),%eax
   21dc2:	3b 43 10             	cmp    0x10(%ebx),%eax
   21dc5:	77 19                	ja     21de0 <__sfvwrite_r+0x260>
   21dc7:	8b 53 14             	mov    0x14(%ebx),%edx
   21dca:	39 d7                	cmp    %edx,%edi
   21dcc:	89 55 e0             	mov    %edx,-0x20(%ebp)
   21dcf:	0f 83 ab 01 00 00    	jae    21f80 <__sfvwrite_r+0x400>
   21dd5:	8d 74 26 00          	lea    0x0(%esi,%eiz,1),%esi
   21dd9:	8d bc 27 00 00 00 00 	lea    0x0(%edi,%eiz,1),%edi
   21de0:	39 cf                	cmp    %ecx,%edi
   21de2:	0f 46 cf             	cmovbe %edi,%ecx
   21de5:	89 4c 24 08          	mov    %ecx,0x8(%esp)
   21de9:	8b 55 e4             	mov    -0x1c(%ebp),%edx
   21dec:	89 04 24             	mov    %eax,(%esp)
   21def:	89 54 24 04          	mov    %edx,0x4(%esp)
   21df3:	89 4d d4             	mov    %ecx,-0x2c(%ebp)
   21df6:	90                   	nop
   21df7:	8d 74 26 00          	lea    0x0(%esi,%eiz,1),%esi
   21dfb:	e8 00 06 00 00       	call   22400 <memmove>
   21e00:	8b 4d d4             	mov    -0x2c(%ebp),%ecx
   21e03:	8b 43 08             	mov    0x8(%ebx),%eax
   21e06:	01 0b                	add    %ecx,(%ebx)
   21e08:	89 ca                	mov    %ecx,%edx
   21e0a:	29 c8                	sub    %ecx,%eax
   21e0c:	85 c0                	test   %eax,%eax
   21e0e:	89 43 08             	mov    %eax,0x8(%ebx)
   21e11:	0f 85 29 ff ff ff    	jne    21d40 <__sfvwrite_r+0x1c0>
   21e17:	89 5c 24 04          	mov    %ebx,0x4(%esp)
   21e1b:	8b 45 08             	mov    0x8(%ebp),%eax
   21e1e:	66 90                	xchg   %ax,%ax
   21e20:	89 04 24             	mov    %eax,(%esp)
   21e23:	eb 16                	jmp    21e3b <__sfvwrite_r+0x2bb>
   21e25:	90                   	nop
   21e26:	90                   	nop
   21e27:	90                   	nop
   21e28:	90                   	nop
   21e29:	90                   	nop
   21e2a:	90                   	nop
   21e2b:	90                   	nop
   21e2c:	90                   	nop
   21e2d:	90                   	nop
   21e2e:	90                   	nop
   21e2f:	90                   	nop
   21e30:	90                   	nop
   21e31:	90                   	nop
   21e32:	90                   	nop
   21e33:	90                   	nop
   21e34:	90                   	nop
   21e35:	90                   	nop
   21e36:	90                   	nop
   21e37:	90                   	nop
   21e38:	90                   	nop
   21e39:	90                   	nop
   21e3a:	90                   	nop
   21e3b:	e8 20 0d 00 00       	call   22b60 <_fflush_r>
   21e40:	8b 4d d4             	mov    -0x2c(%ebp),%ecx
   21e43:	85 c0                	test   %eax,%eax
   21e45:	0f 85 f5 01 00 00    	jne    22040 <__sfvwrite_r+0x4c0>
   21e4b:	89 ca                	mov    %ecx,%edx
   21e4d:	e9 ee fe ff ff       	jmp    21d40 <__sfvwrite_r+0x1c0>
   21e52:	8d b4 26 00 00 00 00 	lea    0x0(%esi,%eiz,1),%esi
   21e59:	8d bc 27 00 00 00 00 	lea    0x0(%edi,%eiz,1),%edi
   21e60:	a9 80 04 00 00       	test   $0x480,%eax
   21e65:	75 19                	jne    21e80 <__sfvwrite_r+0x300>
   21e67:	8b 13                	mov    (%ebx),%edx
   21e69:	89 55 dc             	mov    %edx,-0x24(%ebp)
   21e6c:	89 fa                	mov    %edi,%edx
   21e6e:	e9 8d fe ff ff       	jmp    21d00 <__sfvwrite_r+0x180>
   21e73:	8d b6 00 00 00 00    	lea    0x0(%esi),%esi
   21e79:	8d bc 27 00 00 00 00 	lea    0x0(%edi,%eiz,1),%edi
   21e80:	8b 4b 10             	mov    0x10(%ebx),%ecx
   21e83:	8b 13                	mov    (%ebx),%edx
   21e85:	89 4d dc             	mov    %ecx,-0x24(%ebp)
   21e88:	29 ca                	sub    %ecx,%edx
   21e8a:	89 55 e0             	mov    %edx,-0x20(%ebp)
   21e8d:	8b 53 14             	mov    0x14(%ebx),%edx
   21e90:	8d 14 52             	lea    (%edx,%edx,2),%edx
   21e93:	89 d1                	mov    %edx,%ecx
   21e95:	c1 e9 1f             	shr    $0x1f,%ecx
   21e98:	8d 14 11             	lea    (%ecx,%edx,1),%edx
   21e9b:	8b 4d e0             	mov    -0x20(%ebp),%ecx
   21e9e:	d1 fa                	sar    %edx
   21ea0:	89 55 d8             	mov    %edx,-0x28(%ebp)
   21ea3:	8d 4c 0f 01          	lea    0x1(%edi,%ecx,1),%ecx
   21ea7:	39 ca                	cmp    %ecx,%edx
   21ea9:	89 4d c4             	mov    %ecx,-0x3c(%ebp)
   21eac:	73 12                	jae    21ec0 <__sfvwrite_r+0x340>
   21eae:	89 ca                	mov    %ecx,%edx
   21eb0:	89 4d d8             	mov    %ecx,-0x28(%ebp)
   21eb3:	8d b6 00 00 00 00    	lea    0x0(%esi),%esi
   21eb9:	8d bc 27 00 00 00 00 	lea    0x0(%edi,%eiz,1),%edi
   21ec0:	f6 c4 04             	test   $0x4,%ah
   21ec3:	0f 84 17 01 00 00    	je     21fe0 <__sfvwrite_r+0x460>
   21ec9:	8b 45 d8             	mov    -0x28(%ebp),%eax
   21ecc:	89 44 24 04          	mov    %eax,0x4(%esp)
   21ed0:	8b 4d 08             	mov    0x8(%ebp),%ecx
   21ed3:	89 0c 24             	mov    %ecx,(%esp)
   21ed6:	89 55 d0             	mov    %edx,-0x30(%ebp)
   21ed9:	66 90                	xchg   %ax,%ax
   21edb:	e8 a0 78 00 00       	call   29780 <_malloc_r>
   21ee0:	8b 55 d0             	mov    -0x30(%ebp),%edx
   21ee3:	85 c0                	test   %eax,%eax
   21ee5:	89 45 dc             	mov    %eax,-0x24(%ebp)
   21ee8:	0f 84 52 04 00 00    	je     22340 <__sfvwrite_r+0x7c0>
   21eee:	8b 4d e0             	mov    -0x20(%ebp),%ecx
   21ef1:	89 4c 24 08          	mov    %ecx,0x8(%esp)
   21ef5:	8b 43 10             	mov    0x10(%ebx),%eax
   21ef8:	89 44 24 04          	mov    %eax,0x4(%esp)
   21efc:	8b 45 dc             	mov    -0x24(%ebp),%eax
   21eff:	90                   	nop
   21f00:	89 04 24             	mov    %eax,(%esp)
   21f03:	89 55 d0             	mov    %edx,-0x30(%ebp)
   21f06:	eb 13                	jmp    21f1b <__sfvwrite_r+0x39b>
   21f08:	90                   	nop
   21f09:	90                   	nop
   21f0a:	90                   	nop
   21f0b:	90                   	nop
   21f0c:	90                   	nop
   21f0d:	90                   	nop
   21f0e:	90                   	nop
   21f0f:	90                   	nop
   21f10:	90                   	nop
   21f11:	90                   	nop
   21f12:	90                   	nop
   21f13:	90                   	nop
   21f14:	90                   	nop
   21f15:	90                   	nop
   21f16:	90                   	nop
   21f17:	90                   	nop
   21f18:	90                   	nop
   21f19:	90                   	nop
   21f1a:	90                   	nop
   21f1b:	e8 a0 f2 ff ff       	call   211c0 <memcpy>
   21f20:	0f b7 43 0c          	movzwl 0xc(%ebx),%eax
   21f24:	8b 55 d0             	mov    -0x30(%ebp),%edx
   21f27:	66 25 7f fb          	and    $0xfb7f,%ax
   21f2b:	0c 80                	or     $0x80,%al
   21f2d:	66 89 43 0c          	mov    %ax,0xc(%ebx)
   21f31:	eb 0d                	jmp    21f40 <__sfvwrite_r+0x3c0>
   21f33:	90                   	nop
   21f34:	90                   	nop
   21f35:	90                   	nop
   21f36:	90                   	nop
   21f37:	90                   	nop
   21f38:	90                   	nop
   21f39:	90                   	nop
   21f3a:	90                   	nop
   21f3b:	90                   	nop
   21f3c:	90                   	nop
   21f3d:	90                   	nop
   21f3e:	90                   	nop
   21f3f:	90                   	nop
   21f40:	8b 4d dc             	mov    -0x24(%ebp),%ecx
   21f43:	89 53 14             	mov    %edx,0x14(%ebx)
   21f46:	2b 55 e0             	sub    -0x20(%ebp),%edx
   21f49:	89 4b 10             	mov    %ecx,0x10(%ebx)
   21f4c:	03 4d e0             	add    -0x20(%ebp),%ecx
   21f4f:	89 53 08             	mov    %edx,0x8(%ebx)
   21f52:	89 fa                	mov    %edi,%edx
   21f54:	89 7d e0             	mov    %edi,-0x20(%ebp)
   21f57:	89 4d dc             	mov    %ecx,-0x24(%ebp)
   21f5a:	89 0b                	mov    %ecx,(%ebx)
   21f5c:	89 f9                	mov    %edi,%ecx
   21f5e:	66 90                	xchg   %ax,%ax
   21f60:	e9 9b fd ff ff       	jmp    21d00 <__sfvwrite_r+0x180>
   21f65:	eb 19                	jmp    21f80 <__sfvwrite_r+0x400>
   21f67:	90                   	nop
   21f68:	90                   	nop
   21f69:	90                   	nop
   21f6a:	90                   	nop
   21f6b:	90                   	nop
   21f6c:	90                   	nop
   21f6d:	90                   	nop
   21f6e:	90                   	nop
   21f6f:	90                   	nop
   21f70:	90                   	nop
   21f71:	90                   	nop
   21f72:	90                   	nop
   21f73:	90                   	nop
   21f74:	90                   	nop
   21f75:	90                   	nop
   21f76:	90                   	nop
   21f77:	90                   	nop
   21f78:	90                   	nop
   21f79:	90                   	nop
   21f7a:	90                   	nop
   21f7b:	90                   	nop
   21f7c:	90                   	nop
   21f7d:	90                   	nop
   21f7e:	90                   	nop
   21f7f:	90                   	nop
   21f80:	81 ff ff ff ff 7f    	cmp    $0x7fffffff,%edi
   21f86:	ba ff ff ff 7f       	mov    $0x7fffffff,%edx
   21f8b:	0f 46 d7             	cmovbe %edi,%edx
   21f8e:	89 d0                	mov    %edx,%eax
   21f90:	c1 fa 1f             	sar    $0x1f,%edx
   21f93:	f7 7d e0             	idivl  -0x20(%ebp)
   21f96:	0f af 45 e0          	imul   -0x20(%ebp),%eax
   21f9a:	89 44 24 0c          	mov    %eax,0xc(%esp)
   21f9e:	66 90                	xchg   %ax,%ax
   21fa0:	8b 55 e4             	mov    -0x1c(%ebp),%edx
   21fa3:	89 54 24 08          	mov    %edx,0x8(%esp)
   21fa7:	8b 43 1c             	mov    0x1c(%ebx),%eax
   21faa:	89 44 24 04          	mov    %eax,0x4(%esp)
   21fae:	8b 4d 08             	mov    0x8(%ebp),%ecx
   21fb1:	89 0c 24             	mov    %ecx,(%esp)
   21fb4:	8b 43 24             	mov    0x24(%ebx),%eax
   21fb7:	8d 74 26 00          	lea    0x0(%esi,%eiz,1),%esi
   21fbb:	83 e0 e0             	and    $0xffffffe0,%eax
   21fbe:	ff d0                	call   *%eax
   21fc0:	85 c0                	test   %eax,%eax
   21fc2:	7e 7c                	jle    22040 <__sfvwrite_r+0x4c0>
   21fc4:	89 c2                	mov    %eax,%edx
   21fc6:	e9 75 fd ff ff       	jmp    21d40 <__sfvwrite_r+0x1c0>
   21fcb:	eb 13                	jmp    21fe0 <__sfvwrite_r+0x460>
   21fcd:	90                   	nop
   21fce:	90                   	nop
   21fcf:	90                   	nop
   21fd0:	90                   	nop
   21fd1:	90                   	nop
   21fd2:	90                   	nop
   21fd3:	90                   	nop
   21fd4:	90                   	nop
   21fd5:	90                   	nop
   21fd6:	90                   	nop
   21fd7:	90                   	nop
   21fd8:	90                   	nop
   21fd9:	90                   	nop
   21fda:	90                   	nop
   21fdb:	90                   	nop
   21fdc:	90                   	nop
   21fdd:	90                   	nop
   21fde:	90                   	nop
   21fdf:	90                   	nop
   21fe0:	8b 4d d8             	mov    -0x28(%ebp),%ecx
   21fe3:	89 4c 24 08          	mov    %ecx,0x8(%esp)
   21fe7:	8b 45 dc             	mov    -0x24(%ebp),%eax
   21fea:	89 44 24 04          	mov    %eax,0x4(%esp)
   21fee:	8b 4d 08             	mov    0x8(%ebp),%ecx
   21ff1:	89 0c 24             	mov    %ecx,(%esp)
   21ff4:	89 55 d0             	mov    %edx,-0x30(%ebp)
   21ff7:	8d 74 26 00          	lea    0x0(%esi,%eiz,1),%esi
   21ffb:	e8 00 81 00 00       	call   2a100 <_realloc_r>
   22000:	8b 55 d0             	mov    -0x30(%ebp),%edx
   22003:	85 c0                	test   %eax,%eax
   22005:	89 45 dc             	mov    %eax,-0x24(%ebp)
   22008:	0f 85 32 ff ff ff    	jne    21f40 <__sfvwrite_r+0x3c0>
   2200e:	8b 43 10             	mov    0x10(%ebx),%eax
   22011:	89 44 24 04          	mov    %eax,0x4(%esp)
   22015:	8b 45 08             	mov    0x8(%ebp),%eax
   22018:	89 04 24             	mov    %eax,(%esp)
   2201b:	e8 e0 4f 00 00       	call   27000 <_free_r>
   22020:	8b 55 08             	mov    0x8(%ebp),%edx
   22023:	66 81 63 0c 7f ff    	andw   $0xff7f,0xc(%ebx)
   22029:	c7 02 0c 00 00 00    	movl   $0xc,(%edx)
   2202f:	eb 0f                	jmp    22040 <__sfvwrite_r+0x4c0>
   22031:	90                   	nop
   22032:	90                   	nop
   22033:	90                   	nop
   22034:	90                   	nop
   22035:	90                   	nop
   22036:	90                   	nop
   22037:	90                   	nop
   22038:	90                   	nop
   22039:	90                   	nop
   2203a:	90                   	nop
   2203b:	90                   	nop
   2203c:	90                   	nop
   2203d:	90                   	nop
   2203e:	90                   	nop
   2203f:	90                   	nop
   22040:	66 83 4b 0c 40       	orw    $0x40,0xc(%ebx)
   22045:	83 c4 4c             	add    $0x4c,%esp
   22048:	5b                   	pop    %ebx
   22049:	b8 ff ff ff ff       	mov    $0xffffffff,%eax
   2204e:	5e                   	pop    %esi
   2204f:	5f                   	pop    %edi
   22050:	5d                   	pop    %ebp
   22051:	59                   	pop    %ecx
   22052:	83 e1 e0             	and    $0xffffffe0,%ecx
   22055:	ff e1                	jmp    *%ecx
   22057:	89 f6                	mov    %esi,%esi
   22059:	8d bc 27 00 00 00 00 	lea    0x0(%edi,%eiz,1),%edi
   22060:	31 c9                	xor    %ecx,%ecx
   22062:	89 75 c4             	mov    %esi,-0x3c(%ebp)
   22065:	89 ce                	mov    %ecx,%esi
   22067:	c7 45 dc 00 00 00 00 	movl   $0x0,-0x24(%ebp)
   2206e:	eb 10                	jmp    22080 <__sfvwrite_r+0x500>
   22070:	90                   	nop
   22071:	90                   	nop
   22072:	90                   	nop
   22073:	90                   	nop
   22074:	90                   	nop
   22075:	90                   	nop
   22076:	90                   	nop
   22077:	90                   	nop
   22078:	90                   	nop
   22079:	90                   	nop
   2207a:	90                   	nop
   2207b:	90                   	nop
   2207c:	90                   	nop
   2207d:	90                   	nop
   2207e:	90                   	nop
   2207f:	90                   	nop
   22080:	85 ff                	test   %edi,%edi
   22082:	0f 84 18 01 00 00    	je     221a0 <__sfvwrite_r+0x620>
   22088:	eb 16                	jmp    220a0 <__sfvwrite_r+0x520>
   2208a:	90                   	nop
   2208b:	90                   	nop
   2208c:	90                   	nop
   2208d:	90                   	nop
   2208e:	90                   	nop
   2208f:	90                   	nop
   22090:	90                   	nop
   22091:	90                   	nop
   22092:	90                   	nop
   22093:	90                   	nop
   22094:	90                   	nop
   22095:	90                   	nop
   22096:	90                   	nop
   22097:	90                   	nop
   22098:	90                   	nop
   22099:	90                   	nop
   2209a:	90                   	nop
   2209b:	90                   	nop
   2209c:	90                   	nop
   2209d:	90                   	nop
   2209e:	90                   	nop
   2209f:	90                   	nop
   220a0:	8b 45 dc             	mov    -0x24(%ebp),%eax
   220a3:	85 c0                	test   %eax,%eax
   220a5:	0f 84 f5 01 00 00    	je     222a0 <__sfvwrite_r+0x720>
   220ab:	eb 13                	jmp    220c0 <__sfvwrite_r+0x540>
   220ad:	90                   	nop
   220ae:	90                   	nop
   220af:	90                   	nop
   220b0:	90                   	nop
   220b1:	90                   	nop
   220b2:	90                   	nop
   220b3:	90                   	nop
   220b4:	90                   	nop
   220b5:	90                   	nop
   220b6:	90                   	nop
   220b7:	90                   	nop
   220b8:	90                   	nop
   220b9:	90                   	nop
   220ba:	90                   	nop
   220bb:	90                   	nop
   220bc:	90                   	nop
   220bd:	90                   	nop
   220be:	90                   	nop
   220bf:	90                   	nop
   220c0:	8b 4d e4             	mov    -0x1c(%ebp),%ecx
   220c3:	39 7d e4             	cmp    %edi,-0x1c(%ebp)
   220c6:	8b 53 14             	mov    0x14(%ebx),%edx
   220c9:	8b 03                	mov    (%ebx),%eax
   220cb:	0f 47 cf             	cmova  %edi,%ecx
   220ce:	89 4d e0             	mov    %ecx,-0x20(%ebp)
   220d1:	8b 4b 08             	mov    0x8(%ebx),%ecx
   220d4:	89 45 d8             	mov    %eax,-0x28(%ebp)
   220d7:	01 d1                	add    %edx,%ecx
   220d9:	39 4d e0             	cmp    %ecx,-0x20(%ebp)
   220dc:	8d 74 26 00          	lea    0x0(%esi,%eiz,1),%esi
   220e0:	0f 8e da 00 00 00    	jle    221c0 <__sfvwrite_r+0x640>
   220e6:	3b 43 10             	cmp    0x10(%ebx),%eax
   220e9:	0f 86 d1 00 00 00    	jbe    221c0 <__sfvwrite_r+0x640>
   220ef:	89 4c 24 08          	mov    %ecx,0x8(%esp)
   220f3:	89 74 24 04          	mov    %esi,0x4(%esp)
   220f7:	89 04 24             	mov    %eax,(%esp)
   220fa:	89 4d d4             	mov    %ecx,-0x2c(%ebp)
   220fd:	8d 76 00             	lea    0x0(%esi),%esi
   22100:	eb 19                	jmp    2211b <__sfvwrite_r+0x59b>
   22102:	90                   	nop
   22103:	90                   	nop
   22104:	90                   	nop
   22105:	90                   	nop
   22106:	90                   	nop
   22107:	90                   	nop
   22108:	90                   	nop
   22109:	90                   	nop
   2210a:	90                   	nop
   2210b:	90                   	nop
   2210c:	90                   	nop
   2210d:	90                   	nop
   2210e:	90                   	nop
   2210f:	90                   	nop
   22110:	90                   	nop
   22111:	90                   	nop
   22112:	90                   	nop
   22113:	90                   	nop
   22114:	90                   	nop
   22115:	90                   	nop
   22116:	90                   	nop
   22117:	90                   	nop
   22118:	90                   	nop
   22119:	90                   	nop
   2211a:	90                   	nop
   2211b:	e8 e0 02 00 00       	call   22400 <memmove>
   22120:	8b 4d d4             	mov    -0x2c(%ebp),%ecx
   22123:	01 0b                	add    %ecx,(%ebx)
   22125:	89 5c 24 04          	mov    %ebx,0x4(%esp)
   22129:	8b 55 08             	mov    0x8(%ebp),%edx
   2212c:	89 14 24             	mov    %edx,(%esp)
   2212f:	8d b6 00 00 00 00    	lea    0x0(%esi),%esi
   22135:	8d bf 00 00 00 00    	lea    0x0(%edi),%edi
   2213b:	e8 20 0a 00 00       	call   22b60 <_fflush_r>
   22140:	8b 4d d4             	mov    -0x2c(%ebp),%ecx
   22143:	85 c0                	test   %eax,%eax
   22145:	0f 85 f5 fe ff ff    	jne    22040 <__sfvwrite_r+0x4c0>
   2214b:	eb 13                	jmp    22160 <__sfvwrite_r+0x5e0>
   2214d:	90                   	nop
   2214e:	90                   	nop
   2214f:	90                   	nop
   22150:	90                   	nop
   22151:	90                   	nop
   22152:	90                   	nop
   22153:	90                   	nop
   22154:	90                   	nop
   22155:	90                   	nop
   22156:	90                   	nop
   22157:	90                   	nop
   22158:	90                   	nop
   22159:	90                   	nop
   2215a:	90                   	nop
   2215b:	90                   	nop
   2215c:	90                   	nop
   2215d:	90                   	nop
   2215e:	90                   	nop
   2215f:	90                   	nop
   22160:	29 4d e4             	sub    %ecx,-0x1c(%ebp)
   22163:	0f 84 b7 00 00 00    	je     22220 <__sfvwrite_r+0x6a0>
   22169:	eb 15                	jmp    22180 <__sfvwrite_r+0x600>
   2216b:	90                   	nop
   2216c:	90                   	nop
   2216d:	90                   	nop
   2216e:	90                   	nop
   2216f:	90                   	nop
   22170:	90                   	nop
   22171:	90                   	nop
   22172:	90                   	nop
   22173:	90                   	nop
   22174:	90                   	nop
   22175:	90                   	nop
   22176:	90                   	nop
   22177:	90                   	nop
   22178:	90                   	nop
   22179:	90                   	nop
   2217a:	90                   	nop
   2217b:	90                   	nop
   2217c:	90                   	nop
   2217d:	90                   	nop
   2217e:	90                   	nop
   2217f:	90                   	nop
   22180:	8b 55 10             	mov    0x10(%ebp),%edx
   22183:	01 ce                	add    %ecx,%esi
   22185:	29 cf                	sub    %ecx,%edi
   22187:	8b 42 08             	mov    0x8(%edx),%eax
   2218a:	29 c8                	sub    %ecx,%eax
   2218c:	85 c0                	test   %eax,%eax
   2218e:	89 42 08             	mov    %eax,0x8(%edx)
   22191:	0f 84 a9 fa ff ff    	je     21c40 <__sfvwrite_r+0xc0>
   22197:	85 ff                	test   %edi,%edi
   22199:	0f 85 01 ff ff ff    	jne    220a0 <__sfvwrite_r+0x520>
   2219f:	90                   	nop
   221a0:	8b 45 c4             	mov    -0x3c(%ebp),%eax
   221a3:	c7 45 dc 00 00 00 00 	movl   $0x0,-0x24(%ebp)
   221aa:	8b 30                	mov    (%eax),%esi
   221ac:	8b 78 04             	mov    0x4(%eax),%edi
   221af:	83 c0 08             	add    $0x8,%eax
   221b2:	89 45 c4             	mov    %eax,-0x3c(%ebp)
   221b5:	e9 c6 fe ff ff       	jmp    22080 <__sfvwrite_r+0x500>
   221ba:	8d b6 00 00 00 00    	lea    0x0(%esi),%esi
   221c0:	39 55 e0             	cmp    %edx,-0x20(%ebp)
   221c3:	0f 8c 97 00 00 00    	jl     22260 <__sfvwrite_r+0x6e0>
   221c9:	89 54 24 0c          	mov    %edx,0xc(%esp)
   221cd:	89 74 24 08          	mov    %esi,0x8(%esp)
   221d1:	8b 43 1c             	mov    0x1c(%ebx),%eax
   221d4:	89 44 24 04          	mov    %eax,0x4(%esp)
   221d8:	8b 4d 08             	mov    0x8(%ebp),%ecx
   221db:	89 0c 24             	mov    %ecx,(%esp)
   221de:	66 90                	xchg   %ax,%ax
   221e0:	8b 43 24             	mov    0x24(%ebx),%eax
   221e3:	eb 16                	jmp    221fb <__sfvwrite_r+0x67b>
   221e5:	90                   	nop
   221e6:	90                   	nop
   221e7:	90                   	nop
   221e8:	90                   	nop
   221e9:	90                   	nop
   221ea:	90                   	nop
   221eb:	90                   	nop
   221ec:	90                   	nop
   221ed:	90                   	nop
   221ee:	90                   	nop
   221ef:	90                   	nop
   221f0:	90                   	nop
   221f1:	90                   	nop
   221f2:	90                   	nop
   221f3:	90                   	nop
   221f4:	90                   	nop
   221f5:	90                   	nop
   221f6:	90                   	nop
   221f7:	90                   	nop
   221f8:	90                   	nop
   221f9:	90                   	nop
   221fa:	90                   	nop
   221fb:	83 e0 e0             	and    $0xffffffe0,%eax
   221fe:	ff d0                	call   *%eax
   22200:	85 c0                	test   %eax,%eax
   22202:	89 c1                	mov    %eax,%ecx
   22204:	0f 8e 36 fe ff ff    	jle    22040 <__sfvwrite_r+0x4c0>
   2220a:	29 4d e4             	sub    %ecx,-0x1c(%ebp)
   2220d:	0f 85 6d ff ff ff    	jne    22180 <__sfvwrite_r+0x600>
   22213:	8d b6 00 00 00 00    	lea    0x0(%esi),%esi
   22219:	8d bc 27 00 00 00 00 	lea    0x0(%edi,%eiz,1),%edi
   22220:	89 5c 24 04          	mov    %ebx,0x4(%esp)
   22224:	8b 45 08             	mov    0x8(%ebp),%eax
   22227:	89 04 24             	mov    %eax,(%esp)
   2222a:	89 4d d4             	mov    %ecx,-0x2c(%ebp)
   2222d:	8d b4 26 00 00 00 00 	lea    0x0(%esi,%eiz,1),%esi
   22234:	8d bc 27 00 00 00 00 	lea    0x0(%edi,%eiz,1),%edi
   2223b:	e8 20 09 00 00       	call   22b60 <_fflush_r>
   22240:	8b 4d d4             	mov    -0x2c(%ebp),%ecx
   22243:	85 c0                	test   %eax,%eax
   22245:	0f 85 f5 fd ff ff    	jne    22040 <__sfvwrite_r+0x4c0>
   2224b:	c7 45 dc 00 00 00 00 	movl   $0x0,-0x24(%ebp)
   22252:	e9 29 ff ff ff       	jmp    22180 <__sfvwrite_r+0x600>
   22257:	89 f6                	mov    %esi,%esi
   22259:	8d bc 27 00 00 00 00 	lea    0x0(%edi,%eiz,1),%edi
   22260:	8b 45 e0             	mov    -0x20(%ebp),%eax
   22263:	89 74 24 04          	mov    %esi,0x4(%esp)
   22267:	89 44 24 08          	mov    %eax,0x8(%esp)
   2226b:	8b 55 d8             	mov    -0x28(%ebp),%edx
   2226e:	89 14 24             	mov    %edx,(%esp)
   22271:	8d 76 00             	lea    0x0(%esi),%esi
   22274:	8d bc 27 00 00 00 00 	lea    0x0(%edi,%eiz,1),%edi
   2227b:	e8 80 01 00 00       	call   22400 <memmove>
   22280:	8b 4d e0             	mov    -0x20(%ebp),%ecx
   22283:	29 4b 08             	sub    %ecx,0x8(%ebx)
   22286:	01 0b                	add    %ecx,(%ebx)
   22288:	e9 d3 fe ff ff       	jmp    22160 <__sfvwrite_r+0x5e0>
   2228d:	eb 11                	jmp    222a0 <__sfvwrite_r+0x720>
   2228f:	90                   	nop
   22290:	90                   	nop
   22291:	90                   	nop
   22292:	90                   	nop
   22293:	90                   	nop
   22294:	90                   	nop
   22295:	90                   	nop
   22296:	90                   	nop
   22297:	90                   	nop
   22298:	90                   	nop
   22299:	90                   	nop
   2229a:	90                   	nop
   2229b:	90                   	nop
   2229c:	90                   	nop
   2229d:	90                   	nop
   2229e:	90                   	nop
   2229f:	90                   	nop
   222a0:	89 7c 24 08          	mov    %edi,0x8(%esp)
   222a4:	c7 44 24 04 0a 00 00 	movl   $0xa,0x4(%esp)
   222ab:	00 
   222ac:	89 34 24             	mov    %esi,(%esp)
   222af:	8d b6 00 00 00 00    	lea    0x0(%esi),%esi
   222b5:	8d bf 00 00 00 00    	lea    0x0(%edi),%edi
   222bb:	e8 a0 00 00 00       	call   22360 <memchr>
   222c0:	85 c0                	test   %eax,%eax
   222c2:	74 1c                	je     222e0 <__sfvwrite_r+0x760>
   222c4:	83 c0 01             	add    $0x1,%eax
   222c7:	29 f0                	sub    %esi,%eax
   222c9:	89 45 e4             	mov    %eax,-0x1c(%ebp)
   222cc:	c7 45 dc 01 00 00 00 	movl   $0x1,-0x24(%ebp)
   222d3:	e9 e8 fd ff ff       	jmp    220c0 <__sfvwrite_r+0x540>
   222d8:	90                   	nop
   222d9:	8d b4 26 00 00 00 00 	lea    0x0(%esi,%eiz,1),%esi
   222e0:	8d 57 01             	lea    0x1(%edi),%edx
   222e3:	89 55 e4             	mov    %edx,-0x1c(%ebp)
   222e6:	c7 45 dc 01 00 00 00 	movl   $0x1,-0x24(%ebp)
   222ed:	e9 ce fd ff ff       	jmp    220c0 <__sfvwrite_r+0x540>
   222f2:	8d b4 26 00 00 00 00 	lea    0x0(%esi,%eiz,1),%esi
   222f9:	8d bc 27 00 00 00 00 	lea    0x0(%edi,%eiz,1),%edi
   22300:	89 5c 24 04          	mov    %ebx,0x4(%esp)
   22304:	8b 55 08             	mov    0x8(%ebp),%edx
   22307:	89 14 24             	mov    %edx,(%esp)
   2230a:	eb 0f                	jmp    2231b <__sfvwrite_r+0x79b>
   2230c:	90                   	nop
   2230d:	90                   	nop
   2230e:	90                   	nop
   2230f:	90                   	nop
   22310:	90                   	nop
   22311:	90                   	nop
   22312:	90                   	nop
   22313:	90                   	nop
   22314:	90                   	nop
   22315:	90                   	nop
   22316:	90                   	nop
   22317:	90                   	nop
   22318:	90                   	nop
   22319:	90                   	nop
   2231a:	90                   	nop
   2231b:	e8 80 01 00 00       	call   224a0 <__swsetup_r>
   22320:	89 c2                	mov    %eax,%edx
   22322:	b8 ff ff ff ff       	mov    $0xffffffff,%eax
   22327:	85 d2                	test   %edx,%edx
   22329:	0f 85 31 f9 ff ff    	jne    21c60 <__sfvwrite_r+0xe0>
   2232f:	0f b7 43 0c          	movzwl 0xc(%ebx),%eax
   22333:	0f bf d0             	movswl %ax,%edx
   22336:	e9 85 f8 ff ff       	jmp    21bc0 <__sfvwrite_r+0x40>
   2233b:	90                   	nop
   2233c:	8d 74 26 00          	lea    0x0(%esi,%eiz,1),%esi
   22340:	8b 45 08             	mov    0x8(%ebp),%eax
   22343:	c7 00 0c 00 00 00    	movl   $0xc,(%eax)
   22349:	e9 f2 fc ff ff       	jmp    22040 <__sfvwrite_r+0x4c0>
   2234e:	90                   	nop
   2234f:	90                   	nop
   22350:	90                   	nop
   22351:	90                   	nop
   22352:	90                   	nop
   22353:	90                   	nop
   22354:	90                   	nop
   22355:	90                   	nop
   22356:	90                   	nop
   22357:	90                   	nop
   22358:	90                   	nop
   22359:	90                   	nop
   2235a:	90                   	nop
   2235b:	90                   	nop
   2235c:	90                   	nop
   2235d:	90                   	nop
   2235e:	90                   	nop
   2235f:	90                   	nop

00022360 <memchr>:
   22360:	55                   	push   %ebp
   22361:	89 e5                	mov    %esp,%ebp
   22363:	57                   	push   %edi
   22364:	0f b6 45 0c          	movzbl 0xc(%ebp),%eax
   22368:	8b 4d 10             	mov    0x10(%ebp),%ecx
   2236b:	8b 7d 08             	mov    0x8(%ebp),%edi
   2236e:	31 d2                	xor    %edx,%edx
   22370:	85 c9                	test   %ecx,%ecx
   22372:	74 7b                	je     223ef <L20>
   22374:	f7 c7 03 00 00 00    	test   $0x3,%edi
   2237a:	74 2e                	je     223aa <L5>
   2237c:	3a 07                	cmp    (%edi),%al
   2237e:	66 90                	xchg   %ax,%ax
   22380:	74 6a                	je     223ec <L15>
   22382:	47                   	inc    %edi
   22383:	49                   	dec    %ecx
   22384:	74 69                	je     223ef <L20>
   22386:	f7 c7 03 00 00 00    	test   $0x3,%edi
   2238c:	74 1c                	je     223aa <L5>
   2238e:	3a 07                	cmp    (%edi),%al
   22390:	74 5a                	je     223ec <L15>
   22392:	47                   	inc    %edi
   22393:	49                   	dec    %ecx
   22394:	74 59                	je     223ef <L20>
   22396:	f7 c7 03 00 00 00    	test   $0x3,%edi
   2239c:	8d 74 26 00          	lea    0x0(%esi,%eiz,1),%esi
   223a0:	74 08                	je     223aa <L5>
   223a2:	3a 07                	cmp    (%edi),%al
   223a4:	74 46                	je     223ec <L15>
   223a6:	47                   	inc    %edi
   223a7:	49                   	dec    %ecx
   223a8:	74 45                	je     223ef <L20>

000223aa <L5>:
   223aa:	88 c4                	mov    %al,%ah
   223ac:	89 c2                	mov    %eax,%edx
   223ae:	c1 e2 10             	shl    $0x10,%edx
   223b1:	09 d0                	or     %edx,%eax
   223b3:	53                   	push   %ebx

000223b4 <L8>:
   223b4:	83 e9 04             	sub    $0x4,%ecx
   223b7:	72 1c                	jb     223d5 <L9>
   223b9:	8b 17                	mov    (%edi),%edx
   223bb:	83 c7 04             	add    $0x4,%edi
   223be:	31 c2                	xor    %eax,%edx
   223c0:	8d 9a ff fe fe fe    	lea    -0x1010101(%edx),%ebx
   223c6:	f7 d2                	not    %edx
   223c8:	21 d3                	and    %edx,%ebx
   223ca:	f7 c3 80 80 80 80    	test   $0x80808080,%ebx
   223d0:	74 e2                	je     223b4 <L8>
   223d2:	83 ef 04             	sub    $0x4,%edi

000223d5 <L9>:
   223d5:	5b                   	pop    %ebx
   223d6:	31 d2                	xor    %edx,%edx
   223d8:	83 c1 04             	add    $0x4,%ecx
   223db:	90                   	nop
   223dc:	8d 74 26 00          	lea    0x0(%esi,%eiz,1),%esi
   223e0:	74 0d                	je     223ef <L20>

000223e2 <L10>:
   223e2:	3a 07                	cmp    (%edi),%al
   223e4:	74 06                	je     223ec <L15>
   223e6:	47                   	inc    %edi
   223e7:	49                   	dec    %ecx
   223e8:	75 f8                	jne    223e2 <L10>
   223ea:	31 ff                	xor    %edi,%edi

000223ec <L15>:
   223ec:	4a                   	dec    %edx
   223ed:	21 fa                	and    %edi,%edx

000223ef <L20>:
   223ef:	89 d0                	mov    %edx,%eax
   223f1:	8d 65 fc             	lea    -0x4(%ebp),%esp
   223f4:	5f                   	pop    %edi
   223f5:	c9                   	leave  
   223f6:	59                   	pop    %ecx
   223f7:	83 e1 e0             	and    $0xffffffe0,%ecx
   223fa:	ff e1                	jmp    *%ecx
   223fc:	90                   	nop
   223fd:	90                   	nop
   223fe:	90                   	nop
   223ff:	90                   	nop

00022400 <memmove>:
   22400:	55                   	push   %ebp
   22401:	89 e5                	mov    %esp,%ebp
   22403:	56                   	push   %esi
   22404:	57                   	push   %edi
   22405:	53                   	push   %ebx
   22406:	8b 7d 08             	mov    0x8(%ebp),%edi
   22409:	8b 4d 10             	mov    0x10(%ebp),%ecx
   2240c:	8b 75 0c             	mov    0xc(%ebp),%esi
   2240f:	fc                   	cld    
   22410:	39 fe                	cmp    %edi,%esi
   22412:	73 4c                	jae    22460 <memmove+0x60>
   22414:	8d 5c 31 ff          	lea    -0x1(%ecx,%esi,1),%ebx
   22418:	39 df                	cmp    %ebx,%edi
   2241a:	77 44                	ja     22460 <memmove+0x60>
   2241c:	01 ce                	add    %ecx,%esi
   2241e:	01 cf                	add    %ecx,%edi
   22420:	fd                   	std    
   22421:	83 f9 08             	cmp    $0x8,%ecx
   22424:	76 2d                	jbe    22453 <memmove+0x53>
   22426:	89 fa                	mov    %edi,%edx
   22428:	89 cb                	mov    %ecx,%ebx
   2242a:	83 e2 03             	and    $0x3,%edx
   2242d:	74 0c                	je     2243b <memmove+0x3b>
   2242f:	89 d1                	mov    %edx,%ecx
   22431:	4e                   	dec    %esi
   22432:	4f                   	dec    %edi
   22433:	29 cb                	sub    %ecx,%ebx
   22435:	f3 a4                	rep movsb %ds:(%esi),%es:(%edi)
   22437:	89 d9                	mov    %ebx,%ecx
   22439:	46                   	inc    %esi
   2243a:	47                   	inc    %edi
   2243b:	c1 e9 02             	shr    $0x2,%ecx
   2243e:	66 90                	xchg   %ax,%ax
   22440:	83 ee 04             	sub    $0x4,%esi
   22443:	83 ef 04             	sub    $0x4,%edi
   22446:	f3 a5                	rep movsl %ds:(%esi),%es:(%edi)
   22448:	83 c6 04             	add    $0x4,%esi
   2244b:	83 c7 04             	add    $0x4,%edi
   2244e:	89 d9                	mov    %ebx,%ecx
   22450:	83 e1 03             	and    $0x3,%ecx
   22453:	4e                   	dec    %esi
   22454:	4f                   	dec    %edi
   22455:	f3 a4                	rep movsb %ds:(%esi),%es:(%edi)
   22457:	eb 34                	jmp    2248d <memmove+0x8d>
   22459:	8d b4 26 00 00 00 00 	lea    0x0(%esi,%eiz,1),%esi
   22460:	83 f9 08             	cmp    $0x8,%ecx
   22463:	76 26                	jbe    2248b <memmove+0x8b>
   22465:	89 fa                	mov    %edi,%edx
   22467:	89 cb                	mov    %ecx,%ebx
   22469:	83 e2 03             	and    $0x3,%edx
   2246c:	74 10                	je     2247e <memmove+0x7e>
   2246e:	b9 04 00 00 00       	mov    $0x4,%ecx
   22473:	29 d1                	sub    %edx,%ecx
   22475:	83 e1 03             	and    $0x3,%ecx
   22478:	29 cb                	sub    %ecx,%ebx
   2247a:	f3 a4                	rep movsb %ds:(%esi),%es:(%edi)
   2247c:	89 d9                	mov    %ebx,%ecx
   2247e:	66 90                	xchg   %ax,%ax
   22480:	c1 e9 02             	shr    $0x2,%ecx
   22483:	90                   	nop
   22484:	f3 a5                	rep movsl %ds:(%esi),%es:(%edi)
   22486:	89 d9                	mov    %ebx,%ecx
   22488:	83 e1 03             	and    $0x3,%ecx
   2248b:	f3 a4                	rep movsb %ds:(%esi),%es:(%edi)
   2248d:	8b 45 08             	mov    0x8(%ebp),%eax
   22490:	fc                   	cld    
   22491:	8d 65 f4             	lea    -0xc(%ebp),%esp
   22494:	5b                   	pop    %ebx
   22495:	5f                   	pop    %edi
   22496:	5e                   	pop    %esi
   22497:	c9                   	leave  
   22498:	59                   	pop    %ecx
   22499:	83 e1 e0             	and    $0xffffffe0,%ecx
   2249c:	ff e1                	jmp    *%ecx
   2249e:	90                   	nop
   2249f:	90                   	nop

000224a0 <__swsetup_r>:
   224a0:	55                   	push   %ebp
   224a1:	65 8b 15 00 00 00 00 	mov    %gs:0x0,%edx
   224a8:	89 e5                	mov    %esp,%ebp
   224aa:	56                   	push   %esi
   224ab:	53                   	push   %ebx
   224ac:	83 ec 10             	sub    $0x10,%esp
   224af:	b8 88 fb ff ff       	mov    $0xfffffb88,%eax
   224b4:	8b 75 08             	mov    0x8(%ebp),%esi
   224b7:	8b 5d 0c             	mov    0xc(%ebp),%ebx
   224ba:	8b 04 02             	mov    (%edx,%eax,1),%eax
   224bd:	85 c0                	test   %eax,%eax
   224bf:	90                   	nop
   224c0:	74 1e                	je     224e0 <__swsetup_r+0x40>
   224c2:	8b 50 38             	mov    0x38(%eax),%edx
   224c5:	85 d2                	test   %edx,%edx
   224c7:	0f 84 d3 01 00 00    	je     226a0 <__swsetup_r+0x200>
   224cd:	eb 11                	jmp    224e0 <__swsetup_r+0x40>
   224cf:	90                   	nop
   224d0:	90                   	nop
   224d1:	90                   	nop
   224d2:	90                   	nop
   224d3:	90                   	nop
   224d4:	90                   	nop
   224d5:	90                   	nop
   224d6:	90                   	nop
   224d7:	90                   	nop
   224d8:	90                   	nop
   224d9:	90                   	nop
   224da:	90                   	nop
   224db:	90                   	nop
   224dc:	90                   	nop
   224dd:	90                   	nop
   224de:	90                   	nop
   224df:	90                   	nop
   224e0:	0f b7 43 0c          	movzwl 0xc(%ebx),%eax
   224e4:	0f bf c8             	movswl %ax,%ecx
   224e7:	89 c2                	mov    %eax,%edx
   224e9:	f6 c1 08             	test   $0x8,%cl
   224ec:	0f 85 ae 00 00 00    	jne    225a0 <__swsetup_r+0x100>
   224f2:	f6 c1 10             	test   $0x10,%cl
   224f5:	0f 84 45 02 00 00    	je     22740 <__swsetup_r+0x2a0>
   224fb:	83 e1 04             	and    $0x4,%ecx
   224fe:	66 90                	xchg   %ax,%ax
   22500:	74 7e                	je     22580 <__swsetup_r+0xe0>
   22502:	8b 53 30             	mov    0x30(%ebx),%edx
   22505:	85 d2                	test   %edx,%edx
   22507:	74 57                	je     22560 <__swsetup_r+0xc0>
   22509:	8d 4b 40             	lea    0x40(%ebx),%ecx
   2250c:	39 ca                	cmp    %ecx,%edx
   2250e:	74 30                	je     22540 <__swsetup_r+0xa0>
   22510:	89 54 24 04          	mov    %edx,0x4(%esp)
   22514:	89 34 24             	mov    %esi,(%esp)
   22517:	8d 74 26 00          	lea    0x0(%esi,%eiz,1),%esi
   2251b:	e8 e0 4a 00 00       	call   27000 <_free_r>
   22520:	0f b7 43 0c          	movzwl 0xc(%ebx),%eax
   22524:	eb 1a                	jmp    22540 <__swsetup_r+0xa0>
   22526:	90                   	nop
   22527:	90                   	nop
   22528:	90                   	nop
   22529:	90                   	nop
   2252a:	90                   	nop
   2252b:	90                   	nop
   2252c:	90                   	nop
   2252d:	90                   	nop
   2252e:	90                   	nop
   2252f:	90                   	nop
   22530:	90                   	nop
   22531:	90                   	nop
   22532:	90                   	nop
   22533:	90                   	nop
   22534:	90                   	nop
   22535:	90                   	nop
   22536:	90                   	nop
   22537:	90                   	nop
   22538:	90                   	nop
   22539:	90                   	nop
   2253a:	90                   	nop
   2253b:	90                   	nop
   2253c:	90                   	nop
   2253d:	90                   	nop
   2253e:	90                   	nop
   2253f:	90                   	nop
   22540:	c7 43 30 00 00 00 00 	movl   $0x0,0x30(%ebx)
   22547:	eb 17                	jmp    22560 <__swsetup_r+0xc0>
   22549:	90                   	nop
   2254a:	90                   	nop
   2254b:	90                   	nop
   2254c:	90                   	nop
   2254d:	90                   	nop
   2254e:	90                   	nop
   2254f:	90                   	nop
   22550:	90                   	nop
   22551:	90                   	nop
   22552:	90                   	nop
   22553:	90                   	nop
   22554:	90                   	nop
   22555:	90                   	nop
   22556:	90                   	nop
   22557:	90                   	nop
   22558:	90                   	nop
   22559:	90                   	nop
   2255a:	90                   	nop
   2255b:	90                   	nop
   2255c:	90                   	nop
   2255d:	90                   	nop
   2255e:	90                   	nop
   2255f:	90                   	nop
   22560:	89 c2                	mov    %eax,%edx
   22562:	8b 43 10             	mov    0x10(%ebx),%eax
   22565:	83 e2 db             	and    $0xffffffdb,%edx
   22568:	66 89 53 0c          	mov    %dx,0xc(%ebx)
   2256c:	c7 43 04 00 00 00 00 	movl   $0x0,0x4(%ebx)
   22573:	89 03                	mov    %eax,(%ebx)
   22575:	8d 74 26 00          	lea    0x0(%esi,%eiz,1),%esi
   22579:	8d bc 27 00 00 00 00 	lea    0x0(%edi,%eiz,1),%edi
   22580:	83 ca 08             	or     $0x8,%edx
   22583:	66 89 53 0c          	mov    %dx,0xc(%ebx)
   22587:	eb 17                	jmp    225a0 <__swsetup_r+0x100>
   22589:	90                   	nop
   2258a:	90                   	nop
   2258b:	90                   	nop
   2258c:	90                   	nop
   2258d:	90                   	nop
   2258e:	90                   	nop
   2258f:	90                   	nop
   22590:	90                   	nop
   22591:	90                   	nop
   22592:	90                   	nop
   22593:	90                   	nop
   22594:	90                   	nop
   22595:	90                   	nop
   22596:	90                   	nop
   22597:	90                   	nop
   22598:	90                   	nop
   22599:	90                   	nop
   2259a:	90                   	nop
   2259b:	90                   	nop
   2259c:	90                   	nop
   2259d:	90                   	nop
   2259e:	90                   	nop
   2259f:	90                   	nop
   225a0:	8b 4b 10             	mov    0x10(%ebx),%ecx
   225a3:	85 c9                	test   %ecx,%ecx
   225a5:	0f 84 35 01 00 00    	je     226e0 <__swsetup_r+0x240>
   225ab:	eb 13                	jmp    225c0 <__swsetup_r+0x120>
   225ad:	90                   	nop
   225ae:	90                   	nop
   225af:	90                   	nop
   225b0:	90                   	nop
   225b1:	90                   	nop
   225b2:	90                   	nop
   225b3:	90                   	nop
   225b4:	90                   	nop
   225b5:	90                   	nop
   225b6:	90                   	nop
   225b7:	90                   	nop
   225b8:	90                   	nop
   225b9:	90                   	nop
   225ba:	90                   	nop
   225bb:	90                   	nop
   225bc:	90                   	nop
   225bd:	90                   	nop
   225be:	90                   	nop
   225bf:	90                   	nop
   225c0:	0f bf 53 0c          	movswl 0xc(%ebx),%edx
   225c4:	eb 1a                	jmp    225e0 <__swsetup_r+0x140>
   225c6:	90                   	nop
   225c7:	90                   	nop
   225c8:	90                   	nop
   225c9:	90                   	nop
   225ca:	90                   	nop
   225cb:	90                   	nop
   225cc:	90                   	nop
   225cd:	90                   	nop
   225ce:	90                   	nop
   225cf:	90                   	nop
   225d0:	90                   	nop
   225d1:	90                   	nop
   225d2:	90                   	nop
   225d3:	90                   	nop
   225d4:	90                   	nop
   225d5:	90                   	nop
   225d6:	90                   	nop
   225d7:	90                   	nop
   225d8:	90                   	nop
   225d9:	90                   	nop
   225da:	90                   	nop
   225db:	90                   	nop
   225dc:	90                   	nop
   225dd:	90                   	nop
   225de:	90                   	nop
   225df:	90                   	nop
   225e0:	f6 c2 01             	test   $0x1,%dl
   225e3:	75 7b                	jne    22660 <__swsetup_r+0x1c0>
   225e5:	31 c0                	xor    %eax,%eax
   225e7:	83 e2 02             	and    $0x2,%edx
   225ea:	75 14                	jne    22600 <__swsetup_r+0x160>
   225ec:	8b 43 14             	mov    0x14(%ebx),%eax
   225ef:	eb 0f                	jmp    22600 <__swsetup_r+0x160>
   225f1:	90                   	nop
   225f2:	90                   	nop
   225f3:	90                   	nop
   225f4:	90                   	nop
   225f5:	90                   	nop
   225f6:	90                   	nop
   225f7:	90                   	nop
   225f8:	90                   	nop
   225f9:	90                   	nop
   225fa:	90                   	nop
   225fb:	90                   	nop
   225fc:	90                   	nop
   225fd:	90                   	nop
   225fe:	90                   	nop
   225ff:	90                   	nop
   22600:	89 43 08             	mov    %eax,0x8(%ebx)
   22603:	8b 43 10             	mov    0x10(%ebx),%eax
   22606:	85 c0                	test   %eax,%eax
   22608:	74 76                	je     22680 <__swsetup_r+0x1e0>
   2260a:	eb 14                	jmp    22620 <__swsetup_r+0x180>
   2260c:	90                   	nop
   2260d:	90                   	nop
   2260e:	90                   	nop
   2260f:	90                   	nop
   22610:	90                   	nop
   22611:	90                   	nop
   22612:	90                   	nop
   22613:	90                   	nop
   22614:	90                   	nop
   22615:	90                   	nop
   22616:	90                   	nop
   22617:	90                   	nop
   22618:	90                   	nop
   22619:	90                   	nop
   2261a:	90                   	nop
   2261b:	90                   	nop
   2261c:	90                   	nop
   2261d:	90                   	nop
   2261e:	90                   	nop
   2261f:	90                   	nop
   22620:	31 c0                	xor    %eax,%eax
   22622:	eb 1c                	jmp    22640 <__swsetup_r+0x1a0>
   22624:	90                   	nop
   22625:	90                   	nop
   22626:	90                   	nop
   22627:	90                   	nop
   22628:	90                   	nop
   22629:	90                   	nop
   2262a:	90                   	nop
   2262b:	90                   	nop
   2262c:	90                   	nop
   2262d:	90                   	nop
   2262e:	90                   	nop
   2262f:	90                   	nop
   22630:	90                   	nop
   22631:	90                   	nop
   22632:	90                   	nop
   22633:	90                   	nop
   22634:	90                   	nop
   22635:	90                   	nop
   22636:	90                   	nop
   22637:	90                   	nop
   22638:	90                   	nop
   22639:	90                   	nop
   2263a:	90                   	nop
   2263b:	90                   	nop
   2263c:	90                   	nop
   2263d:	90                   	nop
   2263e:	90                   	nop
   2263f:	90                   	nop
   22640:	83 c4 10             	add    $0x10,%esp
   22643:	5b                   	pop    %ebx
   22644:	5e                   	pop    %esi
   22645:	5d                   	pop    %ebp
   22646:	59                   	pop    %ecx
   22647:	83 e1 e0             	and    $0xffffffe0,%ecx
   2264a:	ff e1                	jmp    *%ecx
   2264c:	eb 12                	jmp    22660 <__swsetup_r+0x1c0>
   2264e:	90                   	nop
   2264f:	90                   	nop
   22650:	90                   	nop
   22651:	90                   	nop
   22652:	90                   	nop
   22653:	90                   	nop
   22654:	90                   	nop
   22655:	90                   	nop
   22656:	90                   	nop
   22657:	90                   	nop
   22658:	90                   	nop
   22659:	90                   	nop
   2265a:	90                   	nop
   2265b:	90                   	nop
   2265c:	90                   	nop
   2265d:	90                   	nop
   2265e:	90                   	nop
   2265f:	90                   	nop
   22660:	8b 43 14             	mov    0x14(%ebx),%eax
   22663:	c7 43 08 00 00 00 00 	movl   $0x0,0x8(%ebx)
   2266a:	f7 d8                	neg    %eax
   2266c:	89 43 18             	mov    %eax,0x18(%ebx)
   2266f:	8b 43 10             	mov    0x10(%ebx),%eax
   22672:	85 c0                	test   %eax,%eax
   22674:	75 aa                	jne    22620 <__swsetup_r+0x180>
   22676:	8d 76 00             	lea    0x0(%esi),%esi
   22679:	8d bc 27 00 00 00 00 	lea    0x0(%edi,%eiz,1),%edi
   22680:	0f b7 43 0c          	movzwl 0xc(%ebx),%eax
   22684:	84 c0                	test   %al,%al
   22686:	79 98                	jns    22620 <__swsetup_r+0x180>
   22688:	83 c8 40             	or     $0x40,%eax
   2268b:	66 89 43 0c          	mov    %ax,0xc(%ebx)
   2268f:	b8 ff ff ff ff       	mov    $0xffffffff,%eax
   22694:	eb aa                	jmp    22640 <__swsetup_r+0x1a0>
   22696:	8d 76 00             	lea    0x0(%esi),%esi
   22699:	8d bc 27 00 00 00 00 	lea    0x0(%edi,%eiz,1),%edi
   226a0:	89 04 24             	mov    %eax,(%esp)
   226a3:	eb 16                	jmp    226bb <__swsetup_r+0x21b>
   226a5:	90                   	nop
   226a6:	90                   	nop
   226a7:	90                   	nop
   226a8:	90                   	nop
   226a9:	90                   	nop
   226aa:	90                   	nop
   226ab:	90                   	nop
   226ac:	90                   	nop
   226ad:	90                   	nop
   226ae:	90                   	nop
   226af:	90                   	nop
   226b0:	90                   	nop
   226b1:	90                   	nop
   226b2:	90                   	nop
   226b3:	90                   	nop
   226b4:	90                   	nop
   226b5:	90                   	nop
   226b6:	90                   	nop
   226b7:	90                   	nop
   226b8:	90                   	nop
   226b9:	90                   	nop
   226ba:	90                   	nop
   226bb:	e8 c0 09 00 00       	call   23080 <__sinit>
   226c0:	e9 1b fe ff ff       	jmp    224e0 <__swsetup_r+0x40>
   226c5:	eb 19                	jmp    226e0 <__swsetup_r+0x240>
   226c7:	90                   	nop
   226c8:	90                   	nop
   226c9:	90                   	nop
   226ca:	90                   	nop
   226cb:	90                   	nop
   226cc:	90                   	nop
   226cd:	90                   	nop
   226ce:	90                   	nop
   226cf:	90                   	nop
   226d0:	90                   	nop
   226d1:	90                   	nop
   226d2:	90                   	nop
   226d3:	90                   	nop
   226d4:	90                   	nop
   226d5:	90                   	nop
   226d6:	90                   	nop
   226d7:	90                   	nop
   226d8:	90                   	nop
   226d9:	90                   	nop
   226da:	90                   	nop
   226db:	90                   	nop
   226dc:	90                   	nop
   226dd:	90                   	nop
   226de:	90                   	nop
   226df:	90                   	nop
   226e0:	0f bf d2             	movswl %dx,%edx
   226e3:	89 d0                	mov    %edx,%eax
   226e5:	25 80 02 00 00       	and    $0x280,%eax
   226ea:	3d 00 02 00 00       	cmp    $0x200,%eax
   226ef:	0f 84 eb fe ff ff    	je     225e0 <__swsetup_r+0x140>
   226f5:	89 5c 24 04          	mov    %ebx,0x4(%esp)
   226f9:	89 34 24             	mov    %esi,(%esp)
   226fc:	8d 74 26 00          	lea    0x0(%esi,%eiz,1),%esi
   22700:	eb 19                	jmp    2271b <__swsetup_r+0x27b>
   22702:	90                   	nop
   22703:	90                   	nop
   22704:	90                   	nop
   22705:	90                   	nop
   22706:	90                   	nop
   22707:	90                   	nop
   22708:	90                   	nop
   22709:	90                   	nop
   2270a:	90                   	nop
   2270b:	90                   	nop
   2270c:	90                   	nop
   2270d:	90                   	nop
   2270e:	90                   	nop
   2270f:	90                   	nop
   22710:	90                   	nop
   22711:	90                   	nop
   22712:	90                   	nop
   22713:	90                   	nop
   22714:	90                   	nop
   22715:	90                   	nop
   22716:	90                   	nop
   22717:	90                   	nop
   22718:	90                   	nop
   22719:	90                   	nop
   2271a:	90                   	nop
   2271b:	e8 00 13 00 00       	call   23a20 <__smakebuf_r>
   22720:	e9 9b fe ff ff       	jmp    225c0 <__swsetup_r+0x120>
   22725:	eb 19                	jmp    22740 <__swsetup_r+0x2a0>
   22727:	90                   	nop
   22728:	90                   	nop
   22729:	90                   	nop
   2272a:	90                   	nop
   2272b:	90                   	nop
   2272c:	90                   	nop
   2272d:	90                   	nop
   2272e:	90                   	nop
   2272f:	90                   	nop
   22730:	90                   	nop
   22731:	90                   	nop
   22732:	90                   	nop
   22733:	90                   	nop
   22734:	90                   	nop
   22735:	90                   	nop
   22736:	90                   	nop
   22737:	90                   	nop
   22738:	90                   	nop
   22739:	90                   	nop
   2273a:	90                   	nop
   2273b:	90                   	nop
   2273c:	90                   	nop
   2273d:	90                   	nop
   2273e:	90                   	nop
   2273f:	90                   	nop
   22740:	c7 06 09 00 00 00    	movl   $0x9,(%esi)
   22746:	b8 ff ff ff ff       	mov    $0xffffffff,%eax
   2274b:	66 83 4b 0c 40       	orw    $0x40,0xc(%ebx)
   22750:	e9 eb fe ff ff       	jmp    22640 <__swsetup_r+0x1a0>
   22755:	90                   	nop
   22756:	90                   	nop
   22757:	90                   	nop
   22758:	90                   	nop
   22759:	90                   	nop
   2275a:	90                   	nop
   2275b:	90                   	nop
   2275c:	90                   	nop
   2275d:	90                   	nop
   2275e:	90                   	nop
   2275f:	90                   	nop

00022760 <__sflush_r>:
   22760:	55                   	push   %ebp
   22761:	89 e5                	mov    %esp,%ebp
   22763:	57                   	push   %edi
   22764:	56                   	push   %esi
   22765:	53                   	push   %ebx
   22766:	83 ec 1c             	sub    $0x1c,%esp
   22769:	8b 5d 0c             	mov    0xc(%ebp),%ebx
   2276c:	0f b7 43 0c          	movzwl 0xc(%ebx),%eax
   22770:	0f bf d0             	movswl %ax,%edx
   22773:	f6 c2 08             	test   $0x8,%dl
   22776:	0f 85 a4 01 00 00    	jne    22920 <__sflush_r+0x1c0>
   2277c:	80 cc 08             	or     $0x8,%ah
   2277f:	90                   	nop
   22780:	66 89 43 0c          	mov    %ax,0xc(%ebx)
   22784:	8b 43 04             	mov    0x4(%ebx),%eax
   22787:	85 c0                	test   %eax,%eax
   22789:	0f 8e 71 02 00 00    	jle    22a00 <__sflush_r+0x2a0>
   2278f:	eb 0f                	jmp    227a0 <__sflush_r+0x40>
   22791:	90                   	nop
   22792:	90                   	nop
   22793:	90                   	nop
   22794:	90                   	nop
   22795:	90                   	nop
   22796:	90                   	nop
   22797:	90                   	nop
   22798:	90                   	nop
   22799:	90                   	nop
   2279a:	90                   	nop
   2279b:	90                   	nop
   2279c:	90                   	nop
   2279d:	90                   	nop
   2279e:	90                   	nop
   2279f:	90                   	nop
   227a0:	8b 73 28             	mov    0x28(%ebx),%esi
   227a3:	85 f6                	test   %esi,%esi
   227a5:	0f 84 75 02 00 00    	je     22a20 <__sflush_r+0x2c0>
   227ab:	0f bf 53 0c          	movswl 0xc(%ebx),%edx
   227af:	8b 45 08             	mov    0x8(%ebp),%eax
   227b2:	f6 c6 10             	test   $0x10,%dh
   227b5:	8b 30                	mov    (%eax),%esi
   227b7:	c7 00 00 00 00 00    	movl   $0x0,(%eax)
   227bd:	8d 76 00             	lea    0x0(%esi),%esi
   227c0:	0f 84 9a 02 00 00    	je     22a60 <__sflush_r+0x300>
   227c6:	8b 43 50             	mov    0x50(%ebx),%eax
   227c9:	eb 15                	jmp    227e0 <__sflush_r+0x80>
   227cb:	90                   	nop
   227cc:	90                   	nop
   227cd:	90                   	nop
   227ce:	90                   	nop
   227cf:	90                   	nop
   227d0:	90                   	nop
   227d1:	90                   	nop
   227d2:	90                   	nop
   227d3:	90                   	nop
   227d4:	90                   	nop
   227d5:	90                   	nop
   227d6:	90                   	nop
   227d7:	90                   	nop
   227d8:	90                   	nop
   227d9:	90                   	nop
   227da:	90                   	nop
   227db:	90                   	nop
   227dc:	90                   	nop
   227dd:	90                   	nop
   227de:	90                   	nop
   227df:	90                   	nop
   227e0:	83 e2 04             	and    $0x4,%edx
   227e3:	74 1b                	je     22800 <__sflush_r+0xa0>
   227e5:	8b 4b 30             	mov    0x30(%ebx),%ecx
   227e8:	2b 43 04             	sub    0x4(%ebx),%eax
   227eb:	85 c9                	test   %ecx,%ecx
   227ed:	74 11                	je     22800 <__sflush_r+0xa0>
   227ef:	2b 43 3c             	sub    0x3c(%ebx),%eax
   227f2:	8d b4 26 00 00 00 00 	lea    0x0(%esi,%eiz,1),%esi
   227f9:	8d bc 27 00 00 00 00 	lea    0x0(%edi,%eiz,1),%edi
   22800:	c7 44 24 0c 00 00 00 	movl   $0x0,0xc(%esp)
   22807:	00 
   22808:	89 44 24 08          	mov    %eax,0x8(%esp)
   2280c:	8b 43 1c             	mov    0x1c(%ebx),%eax
   2280f:	89 44 24 04          	mov    %eax,0x4(%esp)
   22813:	8b 55 08             	mov    0x8(%ebp),%edx
   22816:	89 14 24             	mov    %edx,(%esp)
   22819:	8b 43 28             	mov    0x28(%ebx),%eax
   2281c:	8d 74 26 00          	lea    0x0(%esi,%eiz,1),%esi
   22820:	eb 19                	jmp    2283b <__sflush_r+0xdb>
   22822:	90                   	nop
   22823:	90                   	nop
   22824:	90                   	nop
   22825:	90                   	nop
   22826:	90                   	nop
   22827:	90                   	nop
   22828:	90                   	nop
   22829:	90                   	nop
   2282a:	90                   	nop
   2282b:	90                   	nop
   2282c:	90                   	nop
   2282d:	90                   	nop
   2282e:	90                   	nop
   2282f:	90                   	nop
   22830:	90                   	nop
   22831:	90                   	nop
   22832:	90                   	nop
   22833:	90                   	nop
   22834:	90                   	nop
   22835:	90                   	nop
   22836:	90                   	nop
   22837:	90                   	nop
   22838:	90                   	nop
   22839:	90                   	nop
   2283a:	90                   	nop
   2283b:	83 e0 e0             	and    $0xffffffe0,%eax
   2283e:	ff d0                	call   *%eax
   22840:	83 f8 ff             	cmp    $0xffffffff,%eax
   22843:	0f 84 97 02 00 00    	je     22ae0 <__sflush_r+0x380>
   22849:	eb 15                	jmp    22860 <__sflush_r+0x100>
   2284b:	90                   	nop
   2284c:	90                   	nop
   2284d:	90                   	nop
   2284e:	90                   	nop
   2284f:	90                   	nop
   22850:	90                   	nop
   22851:	90                   	nop
   22852:	90                   	nop
   22853:	90                   	nop
   22854:	90                   	nop
   22855:	90                   	nop
   22856:	90                   	nop
   22857:	90                   	nop
   22858:	90                   	nop
   22859:	90                   	nop
   2285a:	90                   	nop
   2285b:	90                   	nop
   2285c:	90                   	nop
   2285d:	90                   	nop
   2285e:	90                   	nop
   2285f:	90                   	nop
   22860:	0f b7 53 0c          	movzwl 0xc(%ebx),%edx
   22864:	8b 4b 10             	mov    0x10(%ebx),%ecx
   22867:	c7 43 04 00 00 00 00 	movl   $0x0,0x4(%ebx)
   2286e:	80 e6 f7             	and    $0xf7,%dh
   22871:	66 89 53 0c          	mov    %dx,0xc(%ebx)
   22875:	80 e6 10             	and    $0x10,%dh
   22878:	89 0b                	mov    %ecx,(%ebx)
   2287a:	74 44                	je     228c0 <__sflush_r+0x160>
   2287c:	83 f8 ff             	cmp    $0xffffffff,%eax
   2287f:	90                   	nop
   22880:	0f 84 ba 01 00 00    	je     22a40 <__sflush_r+0x2e0>
   22886:	eb 18                	jmp    228a0 <__sflush_r+0x140>
   22888:	90                   	nop
   22889:	90                   	nop
   2288a:	90                   	nop
   2288b:	90                   	nop
   2288c:	90                   	nop
   2288d:	90                   	nop
   2288e:	90                   	nop
   2288f:	90                   	nop
   22890:	90                   	nop
   22891:	90                   	nop
   22892:	90                   	nop
   22893:	90                   	nop
   22894:	90                   	nop
   22895:	90                   	nop
   22896:	90                   	nop
   22897:	90                   	nop
   22898:	90                   	nop
   22899:	90                   	nop
   2289a:	90                   	nop
   2289b:	90                   	nop
   2289c:	90                   	nop
   2289d:	90                   	nop
   2289e:	90                   	nop
   2289f:	90                   	nop
   228a0:	89 c1                	mov    %eax,%ecx
   228a2:	c1 f9 1f             	sar    $0x1f,%ecx
   228a5:	89 43 50             	mov    %eax,0x50(%ebx)
   228a8:	89 4b 54             	mov    %ecx,0x54(%ebx)
   228ab:	eb 13                	jmp    228c0 <__sflush_r+0x160>
   228ad:	90                   	nop
   228ae:	90                   	nop
   228af:	90                   	nop
   228b0:	90                   	nop
   228b1:	90                   	nop
   228b2:	90                   	nop
   228b3:	90                   	nop
   228b4:	90                   	nop
   228b5:	90                   	nop
   228b6:	90                   	nop
   228b7:	90                   	nop
   228b8:	90                   	nop
   228b9:	90                   	nop
   228ba:	90                   	nop
   228bb:	90                   	nop
   228bc:	90                   	nop
   228bd:	90                   	nop
   228be:	90                   	nop
   228bf:	90                   	nop
   228c0:	8b 45 08             	mov    0x8(%ebp),%eax
   228c3:	89 30                	mov    %esi,(%eax)
   228c5:	8b 43 30             	mov    0x30(%ebx),%eax
   228c8:	85 c0                	test   %eax,%eax
   228ca:	0f 84 50 01 00 00    	je     22a20 <__sflush_r+0x2c0>
   228d0:	8d 53 40             	lea    0x40(%ebx),%edx
   228d3:	39 d0                	cmp    %edx,%eax
   228d5:	74 29                	je     22900 <__sflush_r+0x1a0>
   228d7:	89 44 24 04          	mov    %eax,0x4(%esp)
   228db:	8b 55 08             	mov    0x8(%ebp),%edx
   228de:	66 90                	xchg   %ax,%ax
   228e0:	89 14 24             	mov    %edx,(%esp)
   228e3:	eb 16                	jmp    228fb <__sflush_r+0x19b>
   228e5:	90                   	nop
   228e6:	90                   	nop
   228e7:	90                   	nop
   228e8:	90                   	nop
   228e9:	90                   	nop
   228ea:	90                   	nop
   228eb:	90                   	nop
   228ec:	90                   	nop
   228ed:	90                   	nop
   228ee:	90                   	nop
   228ef:	90                   	nop
   228f0:	90                   	nop
   228f1:	90                   	nop
   228f2:	90                   	nop
   228f3:	90                   	nop
   228f4:	90                   	nop
   228f5:	90                   	nop
   228f6:	90                   	nop
   228f7:	90                   	nop
   228f8:	90                   	nop
   228f9:	90                   	nop
   228fa:	90                   	nop
   228fb:	e8 00 47 00 00       	call   27000 <_free_r>
   22900:	c7 43 30 00 00 00 00 	movl   $0x0,0x30(%ebx)
   22907:	83 c4 1c             	add    $0x1c,%esp
   2290a:	31 c0                	xor    %eax,%eax
   2290c:	5b                   	pop    %ebx
   2290d:	5e                   	pop    %esi
   2290e:	5f                   	pop    %edi
   2290f:	5d                   	pop    %ebp
   22910:	59                   	pop    %ecx
   22911:	83 e1 e0             	and    $0xffffffe0,%ecx
   22914:	ff e1                	jmp    *%ecx
   22916:	8d 76 00             	lea    0x0(%esi),%esi
   22919:	8d bc 27 00 00 00 00 	lea    0x0(%edi,%eiz,1),%edi
   22920:	8b 7b 10             	mov    0x10(%ebx),%edi
   22923:	85 ff                	test   %edi,%edi
   22925:	0f 84 f5 00 00 00    	je     22a20 <__sflush_r+0x2c0>
   2292b:	8b 33                	mov    (%ebx),%esi
   2292d:	31 c0                	xor    %eax,%eax
   2292f:	89 3b                	mov    %edi,(%ebx)
   22931:	29 fe                	sub    %edi,%esi
   22933:	83 e2 03             	and    $0x3,%edx
   22936:	75 08                	jne    22940 <__sflush_r+0x1e0>
   22938:	8b 43 14             	mov    0x14(%ebx),%eax
   2293b:	90                   	nop
   2293c:	8d 74 26 00          	lea    0x0(%esi,%eiz,1),%esi
   22940:	85 f6                	test   %esi,%esi
   22942:	89 43 08             	mov    %eax,0x8(%ebx)
